
libc/build/hello:     file format elf64-littleriscv


Disassembly of section .text:

00000000000100e8 <.text>:
   100e8:	00017537          	lui	a0,0x17
   100ec:	1141                	addi	sp,sp,-16
   100ee:	a4050513          	addi	a0,a0,-1472 # 0x16a40
   100f2:	e406                	sd	ra,8(sp)
   100f4:	2e1010ef          	jal	ra,0x11bd4
   100f8:	60a2                	ld	ra,8(sp)
   100fa:	4501                	li	a0,0
   100fc:	0141                	addi	sp,sp,16
   100fe:	8082                	ret
   10100:	0000a197          	auipc	gp,0xa
   10104:	80818193          	addi	gp,gp,-2040 # 0x19908
   10108:	850a                	mv	a0,sp
   1010a:	ffff0597          	auipc	a1,0xffff0
   1010e:	ef658593          	addi	a1,a1,-266 # 0x0
   10112:	ff017113          	andi	sp,sp,-16
   10116:	004000ef          	jal	ra,0x1011a
   1011a:	410c                	lw	a1,0(a0)
   1011c:	00011737          	lui	a4,0x11
   10120:	000116b7          	lui	a3,0x11
   10124:	00850613          	addi	a2,a0,8
   10128:	00010537          	lui	a0,0x10
   1012c:	1141                	addi	sp,sp,-16
   1012e:	4781                	li	a5,0
   10130:	d3e70713          	addi	a4,a4,-706 # 0x10d3e
   10134:	b6e68693          	addi	a3,a3,-1170 # 0x10b6e
   10138:	0e850513          	addi	a0,a0,232 # 0x100e8
   1013c:	e406                	sd	ra,8(sp)
   1013e:	387000ef          	jal	ra,0x10cc4
   10142:	6565                	lui	a0,0x19
   10144:	67e5                	lui	a5,0x19
   10146:	0e850713          	addi	a4,a0,232 # 0x190e8
   1014a:	0e878793          	addi	a5,a5,232 # 0x190e8
   1014e:	00e78b63          	beq	a5,a4,0x10164
   10152:	00000337          	lui	t1,0x0
   10156:	00030313          	mv	t1,t1
   1015a:	00030563          	beqz	t1,0x10164
   1015e:	0e850513          	addi	a0,a0,232
   10162:	8302                	jr	t1
   10164:	8082                	ret
   10166:	67e5                	lui	a5,0x19
   10168:	6565                	lui	a0,0x19
   1016a:	0e878593          	addi	a1,a5,232 # 0x190e8
   1016e:	0e850793          	addi	a5,a0,232 # 0x190e8
   10172:	8d9d                	sub	a1,a1,a5
   10174:	858d                	srai	a1,a1,0x3
   10176:	4789                	li	a5,2
   10178:	02f5c5b3          	div	a1,a1,a5
   1017c:	c991                	beqz	a1,0x10190
   1017e:	00000337          	lui	t1,0x0
   10182:	00030313          	mv	t1,t1
   10186:	00030563          	beqz	t1,0x10190
   1018a:	0e850513          	addi	a0,a0,232
   1018e:	8302                	jr	t1
   10190:	8082                	ret
   10192:	9501c703          	lbu	a4,-1712(gp)
   10196:	eb15                	bnez	a4,0x101ca
   10198:	1141                	addi	sp,sp,-16
   1019a:	e022                	sd	s0,0(sp)
   1019c:	e406                	sd	ra,8(sp)
   1019e:	843e                	mv	s0,a5
   101a0:	fa3ff0ef          	jal	ra,0x10142
   101a4:	000007b7          	lui	a5,0x0
   101a8:	00078793          	mv	a5,a5
   101ac:	cb81                	beqz	a5,0x101bc
   101ae:	6561                	lui	a0,0x18
   101b0:	eb050513          	addi	a0,a0,-336 # 0x17eb0
   101b4:	00000097          	auipc	ra,0x0
   101b8:	000000e7          	jalr	zero # 0x0
   101bc:	4785                	li	a5,1
   101be:	94f18823          	sb	a5,-1712(gp)
   101c2:	60a2                	ld	ra,8(sp)
   101c4:	6402                	ld	s0,0(sp)
   101c6:	0141                	addi	sp,sp,16
   101c8:	8082                	ret
   101ca:	8082                	ret
   101cc:	000007b7          	lui	a5,0x0
   101d0:	00078793          	mv	a5,a5
   101d4:	cf91                	beqz	a5,0x101f0
   101d6:	6561                	lui	a0,0x18
   101d8:	1141                	addi	sp,sp,-16
   101da:	95818593          	addi	a1,gp,-1704
   101de:	eb050513          	addi	a0,a0,-336 # 0x17eb0
   101e2:	e406                	sd	ra,8(sp)
   101e4:	00000097          	auipc	ra,0x0
   101e8:	000000e7          	jalr	zero # 0x0
   101ec:	60a2                	ld	ra,8(sp)
   101ee:	0141                	addi	sp,sp,16
   101f0:	f77ff06f          	j	0x10166
   101f4:	1101                	addi	sp,sp,-32
   101f6:	4505                	li	a0,1
   101f8:	e822                	sd	s0,16(sp)
   101fa:	ec06                	sd	ra,24(sp)
   101fc:	e426                	sd	s1,8(sp)
   101fe:	251030ef          	jal	ra,0x13c4e
   10202:	57fd                	li	a5,-1
   10204:	4405                	li	s0,1
   10206:	02f51063          	bne	a0,a5,0x10226
   1020a:	2ed000ef          	jal	ra,0x10cf6
   1020e:	4118                	lw	a4,0(a0)
   10210:	47e1                	li	a5,24
   10212:	02f70063          	beq	a4,a5,0x10232
   10216:	00017537          	lui	a0,0x17
   1021a:	4581                	li	a1,0
   1021c:	a5050513          	addi	a0,a0,-1456 # 0x16a50
   10220:	365000ef          	jal	ra,0x10d84
   10224:	842a                	mv	s0,a0
   10226:	54fd                	li	s1,-1
   10228:	8522                	mv	a0,s0
   1022a:	225030ef          	jal	ra,0x13c4e
   1022e:	fe951de3          	bne	a0,s1,0x10228
   10232:	60e2                	ld	ra,24(sp)
   10234:	6442                	ld	s0,16(sp)
   10236:	64a2                	ld	s1,8(sp)
   10238:	6105                	addi	sp,sp,32
   1023a:	8082                	ret
   1023c:	1141                	addi	sp,sp,-16
   1023e:	4601                	li	a2,0
   10240:	4581                	li	a1,0
   10242:	4501                	li	a0,0
   10244:	e022                	sd	s0,0(sp)
   10246:	e406                	sd	ra,8(sp)
   10248:	736000ef          	jal	ra,0x1097e
   1024c:	4401                	li	s0,0
   1024e:	00055f63          	bgez	a0,0x1026c
   10252:	2a5000ef          	jal	ra,0x10cf6
   10256:	4108                	lw	a0,0(a0)
   10258:	547d                	li	s0,-1
   1025a:	2db000ef          	jal	ra,0x10d34
   1025e:	85aa                	mv	a1,a0
   10260:	00017537          	lui	a0,0x17
   10264:	a6050513          	addi	a0,a0,-1440 # 0x16a60
   10268:	33e000ef          	jal	ra,0x105a6
   1026c:	4581                	li	a1,0
   1026e:	4509                	li	a0,2
   10270:	5f6000ef          	jal	ra,0x10866
   10274:	00054c63          	bltz	a0,0x1028c
   10278:	e811                	bnez	s0,0x1028c
   1027a:	4505                	li	a0,1
   1027c:	340010ef          	jal	ra,0x115bc
   10280:	fd6d                	bnez	a0,0x1027a
   10282:	8522                	mv	a0,s0
   10284:	60a2                	ld	ra,8(sp)
   10286:	6402                	ld	s0,0(sp)
   10288:	0141                	addi	sp,sp,16
   1028a:	8082                	ret
   1028c:	547d                	li	s0,-1
   1028e:	bfd5                	j	0x10282
   10290:	e0050553          	fmv.x.w	a0,fa0
   10294:	0175551b          	srliw	a0,a0,0x17
   10298:	0ff57513          	zext.b	a0,a0
   1029c:	e111                	bnez	a0,0x102a0
   1029e:	4505                	li	a0,1
   102a0:	f6a5051b          	addiw	a0,a0,-150
   102a4:	8082                	ret
   102a6:	e2050553          	fmv.x.d	a0,fa0
   102aa:	9151                	srli	a0,a0,0x34
   102ac:	7ff57513          	andi	a0,a0,2047
   102b0:	e111                	bnez	a0,0x102b4
   102b2:	4505                	li	a0,1
   102b4:	bcd5051b          	addiw	a0,a0,-1075
   102b8:	8082                	ret
   102ba:	4501                	li	a0,0
   102bc:	8082                	ret
   102be:	7179                	addi	sp,sp,-48
   102c0:	00a12627          	fsw	fa0,12(sp)
   102c4:	4732                	lw	a4,12(sp)
   102c6:	800007b7          	lui	a5,0x80000
   102ca:	fff7c793          	not	a5,a5
   102ce:	f022                	sd	s0,32(sp)
   102d0:	ac22                	fsd	fs0,24(sp)
   102d2:	f406                	sd	ra,40(sp)
   102d4:	00f77633          	and	a2,a4,a5
   102d8:	7f8006b7          	lui	a3,0x7f800
   102dc:	e0058453          	fmv.x.w	s0,fa1
   102e0:	20c60453          	fmv.s	fs0,fa2
   102e4:	00c6f963          	bgeu	a3,a2,0x102f6
   102e8:	8fe1                	and	a5,a5,s0
   102ea:	2781                	sext.w	a5,a5
   102ec:	08f6f863          	bgeu	a3,a5,0x1037c
   102f0:	f0000453          	fmv.w.x	fs0,zero
   102f4:	a005                	j	0x10314
   102f6:	00c12787          	flw	fa5,12(sp)
   102fa:	a0b7a7d3          	feq.s	a5,fa5,fa1
   102fe:	c395                	beqz	a5,0x10322
   10300:	01f7571b          	srliw	a4,a4,0x1f
   10304:	01f4541b          	srliw	s0,s0,0x1f
   10308:	00870663          	beq	a4,s0,0x10314
   1030c:	000197b7          	lui	a5,0x19
   10310:	1487a407          	flw	fs0,328(a5) # 0x19148
   10314:	70a2                	ld	ra,40(sp)
   10316:	7402                	ld	s0,32(sp)
   10318:	20840553          	fmv.s	fa0,fs0
   1031c:	2462                	fld	fs0,24(sp)
   1031e:	6145                	addi	sp,sp,48
   10320:	8082                	ret
   10322:	02d61663          	bne	a2,a3,0x1034e
   10326:	000197b7          	lui	a5,0x19
   1032a:	14c7a507          	flw	fa0,332(a5) # 0x1914c
   1032e:	00c12587          	flw	fa1,12(sp)
   10332:	61e010ef          	jal	ra,0x11950
   10336:	000197b7          	lui	a5,0x19
   1033a:	f0040753          	fmv.w.x	fa4,s0
   1033e:	1507a787          	flw	fa5,336(a5) # 0x19150
   10342:	00a12627          	fsw	fa0,12(sp)
   10346:	10f777d3          	fmul.s	fa5,fa4,fa5
   1034a:	e0078453          	fmv.x.w	s0,fa5
   1034e:	f0040553          	fmv.w.x	fa0,s0
   10352:	f3fff0ef          	jal	ra,0x10290
   10356:	00c12787          	flw	fa5,12(sp)
   1035a:	f0040753          	fmv.w.x	fa4,s0
   1035e:	40a0053b          	negw	a0,a0
   10362:	08e7f553          	fsub.s	fa0,fa5,fa4
   10366:	42050553          	fcvt.d.s	fa0,fa0
   1036a:	5ec010ef          	jal	ra,0x11956
   1036e:	42040453          	fcvt.d.s	fs0,fs0
   10372:	02a47453          	fadd.d	fs0,fs0,fa0
   10376:	40147453          	fcvt.s.d	fs0,fs0
   1037a:	bf69                	j	0x10314
   1037c:	00c12787          	flw	fa5,12(sp)
   10380:	a0b7a7d3          	feq.s	a5,fa5,fa1
   10384:	ffb5                	bnez	a5,0x10300
   10386:	b7e1                	j	0x1034e
   10388:	e20507d3          	fmv.x.d	a5,fa0
   1038c:	577d                	li	a4,-1
   1038e:	1101                	addi	sp,sp,-32
   10390:	8305                	srli	a4,a4,0x1
   10392:	7ff00693          	li	a3,2047
   10396:	e822                	sd	s0,16(sp)
   10398:	a026                	fsd	fs1,0(sp)
   1039a:	ec06                	sd	ra,24(sp)
   1039c:	a422                	fsd	fs0,8(sp)
   1039e:	00f775b3          	and	a1,a4,a5
   103a2:	16d2                	slli	a3,a3,0x34
   103a4:	e2058453          	fmv.x.d	s0,fa1
   103a8:	20c604d3          	fmv.s	fs1,fa2
   103ac:	863e                	mv	a2,a5
   103ae:	00b6f863          	bgeu	a3,a1,0x103be
   103b2:	8f61                	and	a4,a4,s0
   103b4:	08e6f763          	bgeu	a3,a4,0x10442
   103b8:	f00004d3          	fmv.w.x	fs1,zero
   103bc:	a831                	j	0x103d8
   103be:	a2b52753          	feq.d	a4,fa0,fa1
   103c2:	c31d                	beqz	a4,0x103e8
   103c4:	00062613          	slti	a2,a2,0
   103c8:	00042413          	slti	s0,s0,0
   103cc:	00860663          	beq	a2,s0,0x103d8
   103d0:	000197b7          	lui	a5,0x19
   103d4:	1487a487          	flw	fs1,328(a5) # 0x19148
   103d8:	60e2                	ld	ra,24(sp)
   103da:	6442                	ld	s0,16(sp)
   103dc:	20948553          	fmv.s	fa0,fs1
   103e0:	2422                	fld	fs0,8(sp)
   103e2:	2482                	fld	fs1,0(sp)
   103e4:	6105                	addi	sp,sp,32
   103e6:	8082                	ret
   103e8:	02d59663          	bne	a1,a3,0x10414
   103ec:	000197b7          	lui	a5,0x19
   103f0:	22a505d3          	fmv.d	fa1,fa0
   103f4:	1087b507          	fld	fa0,264(a5) # 0x19108
   103f8:	552010ef          	jal	ra,0x1194a
   103fc:	00019737          	lui	a4,0x19
   10400:	f2040753          	fmv.d.x	fa4,s0
   10404:	11073787          	fld	fa5,272(a4) # 0x19110
   10408:	e20507d3          	fmv.x.d	a5,fa0
   1040c:	12f777d3          	fmul.d	fa5,fa4,fa5
   10410:	e2078453          	fmv.x.d	s0,fa5
   10414:	f20787d3          	fmv.d.x	fa5,a5
   10418:	f2040753          	fmv.d.x	fa4,s0
   1041c:	f2040553          	fmv.d.x	fa0,s0
   10420:	0ae7f453          	fsub.d	fs0,fa5,fa4
   10424:	e83ff0ef          	jal	ra,0x102a6
   10428:	40a0053b          	negw	a0,a0
   1042c:	22840553          	fmv.d	fa0,fs0
   10430:	526010ef          	jal	ra,0x11956
   10434:	420484d3          	fcvt.d.s	fs1,fs1
   10438:	02a4f4d3          	fadd.d	fs1,fs1,fa0
   1043c:	4014f4d3          	fcvt.s.d	fs1,fs1
   10440:	bf61                	j	0x103d8
   10442:	a2b52753          	feq.d	a4,fa0,fa1
   10446:	ff3d                	bnez	a4,0x103c4
   10448:	b7f1                	j	0x10414
   1044a:	000197b7          	lui	a5,0x19
   1044e:	1487a507          	flw	fa0,328(a5) # 0x19148
   10452:	8082                	ret
   10454:	711d                	addi	sp,sp,-96
   10456:	e4a6                	sd	s1,72(sp)
   10458:	64dd                	lui	s1,0x17
   1045a:	fc4e                	sd	s3,56(sp)
   1045c:	f456                	sd	s5,40(sp)
   1045e:	f05a                	sd	s6,32(sp)
   10460:	a9048493          	addi	s1,s1,-1392 # 0x16a90
   10464:	00017ab7          	lui	s5,0x17
   10468:	00017b37          	lui	s6,0x17
   1046c:	e8a2                	sd	s0,80(sp)
   1046e:	e0ca                	sd	s2,64(sp)
   10470:	f852                	sd	s4,48(sp)
   10472:	e862                	sd	s8,16(sp)
   10474:	e466                	sd	s9,8(sp)
   10476:	ec86                	sd	ra,88(sp)
   10478:	ec5e                	sd	s7,24(sp)
   1047a:	8a2a                	mv	s4,a0
   1047c:	05048c13          	addi	s8,s1,80
   10480:	4401                	li	s0,0
   10482:	98818913          	addi	s2,gp,-1656
   10486:	00017cb7          	lui	s9,0x17
   1048a:	b00a8a93          	addi	s5,s5,-1280 # 0x16b00
   1048e:	c00b0b13          	addi	s6,s6,-1024 # 0x16c00
   10492:	0004ab83          	lw	s7,0(s1)
   10496:	014bf7b3          	and	a5,s7,s4
   1049a:	cf89                	beqz	a5,0x104b4
   1049c:	8656                	mv	a2,s5
   1049e:	e011                	bnez	s0,0x104a2
   104a0:	865a                	mv	a2,s6
   104a2:	6494                	ld	a3,8(s1)
   104a4:	854a                	mv	a0,s2
   104a6:	b10c8593          	addi	a1,s9,-1264 # 0x16b10
   104aa:	76c010ef          	jal	ra,0x11c16
   104ae:	992a                	add	s2,s2,a0
   104b0:	008be433          	or	s0,s7,s0
   104b4:	04c1                	addi	s1,s1,16
   104b6:	fd849ee3          	bne	s1,s8,0x10492
   104ba:	03440363          	beq	s0,s4,0x104e0
   104be:	ec29                	bnez	s0,0x10518
   104c0:	00017637          	lui	a2,0x17
   104c4:	c0060613          	addi	a2,a2,-1024 # 0x16c00
   104c8:	fff44693          	not	a3,s0
   104cc:	000175b7          	lui	a1,0x17
   104d0:	854a                	mv	a0,s2
   104d2:	0146f6b3          	and	a3,a3,s4
   104d6:	b1858593          	addi	a1,a1,-1256 # 0x16b18
   104da:	73c010ef          	jal	ra,0x11c16
   104de:	992a                	add	s2,s2,a0
   104e0:	040a1163          	bnez	s4,0x10522
   104e4:	00017637          	lui	a2,0x17
   104e8:	b0860613          	addi	a2,a2,-1272 # 0x16b08
   104ec:	000175b7          	lui	a1,0x17
   104f0:	854a                	mv	a0,s2
   104f2:	b2058593          	addi	a1,a1,-1248 # 0x16b20
   104f6:	720010ef          	jal	ra,0x11c16
   104fa:	60e6                	ld	ra,88(sp)
   104fc:	6446                	ld	s0,80(sp)
   104fe:	98818513          	addi	a0,gp,-1656
   10502:	64a6                	ld	s1,72(sp)
   10504:	6906                	ld	s2,64(sp)
   10506:	79e2                	ld	s3,56(sp)
   10508:	7a42                	ld	s4,48(sp)
   1050a:	7aa2                	ld	s5,40(sp)
   1050c:	7b02                	ld	s6,32(sp)
   1050e:	6be2                	ld	s7,24(sp)
   10510:	6c42                	ld	s8,16(sp)
   10512:	6ca2                	ld	s9,8(sp)
   10514:	6125                	addi	sp,sp,96
   10516:	8082                	ret
   10518:	00017637          	lui	a2,0x17
   1051c:	b0060613          	addi	a2,a2,-1280 # 0x16b00
   10520:	b765                	j	0x104c8
   10522:	00017637          	lui	a2,0x17
   10526:	c0060613          	addi	a2,a2,-1024 # 0x16c00
   1052a:	b7c9                	j	0x104ec
   1052c:	478d                	li	a5,3
   1052e:	00a7ea63          	bltu	a5,a0,0x10542
   10532:	1502                	slli	a0,a0,0x20
   10534:	67dd                	lui	a5,0x17
   10536:	a9078793          	addi	a5,a5,-1392 # 0x16a90
   1053a:	8175                	srli	a0,a0,0x1d
   1053c:	953e                	add	a0,a0,a5
   1053e:	6928                	ld	a0,80(a0)
   10540:	8082                	ret
   10542:	00017537          	lui	a0,0x17
   10546:	b2850513          	addi	a0,a0,-1240 # 0x16b28
   1054a:	8082                	ret
   1054c:	7179                	addi	sp,sp,-48
   1054e:	f022                	sd	s0,32(sp)
   10550:	ec26                	sd	s1,24(sp)
   10552:	842a                	mv	s0,a0
   10554:	84ae                	mv	s1,a1
   10556:	8532                	mv	a0,a2
   10558:	02f00593          	li	a1,47
   1055c:	e436                	sd	a3,8(sp)
   1055e:	f406                	sd	ra,40(sp)
   10560:	e032                	sd	a2,0(sp)
   10562:	1aa030ef          	jal	ra,0x1370c
   10566:	66a2                	ld	a3,8(sp)
   10568:	c515                	beqz	a0,0x10594
   1056a:	6702                	ld	a4,0(sp)
   1056c:	00017637          	lui	a2,0x17
   10570:	87b6                	mv	a5,a3
   10572:	b9060613          	addi	a2,a2,-1136 # 0x16b90
   10576:	40e506bb          	subw	a3,a0,a4
   1057a:	85a6                	mv	a1,s1
   1057c:	8522                	mv	a0,s0
   1057e:	67c010ef          	jal	ra,0x11bfa
   10582:	00956363          	bltu	a0,s1,0x10588
   10586:	4401                	li	s0,0
   10588:	8522                	mv	a0,s0
   1058a:	70a2                	ld	ra,40(sp)
   1058c:	7402                	ld	s0,32(sp)
   1058e:	64e2                	ld	s1,24(sp)
   10590:	6145                	addi	sp,sp,48
   10592:	8082                	ret
   10594:	00017637          	lui	a2,0x17
   10598:	b9860613          	addi	a2,a2,-1128 # 0x16b98
   1059c:	85a6                	mv	a1,s1
   1059e:	8522                	mv	a0,s0
   105a0:	65a010ef          	jal	ra,0x11bfa
   105a4:	bff9                	j	0x10582
   105a6:	da010113          	addi	sp,sp,-608
   105aa:	22b13423          	sd	a1,552(sp)
   105ae:	22c13823          	sd	a2,560(sp)
   105b2:	22d13c23          	sd	a3,568(sp)
   105b6:	862a                	mv	a2,a0
   105b8:	24e13023          	sd	a4,576(sp)
   105bc:	24f13423          	sd	a5,584(sp)
   105c0:	4705                	li	a4,1
   105c2:	1434                	addi	a3,sp,552
   105c4:	20000593          	li	a1,512
   105c8:	0808                	addi	a0,sp,16
   105ca:	20113c23          	sd	ra,536(sp)
   105ce:	25013823          	sd	a6,592(sp)
   105d2:	25113c23          	sd	a7,600(sp)
   105d6:	88e1a423          	sw	a4,-1912(gp)
   105da:	e436                	sd	a3,8(sp)
   105dc:	35f020ef          	jal	ra,0x1313a
   105e0:	4601                	li	a2,0
   105e2:	00054f63          	bltz	a0,0x10600
   105e6:	1ff00793          	li	a5,511
   105ea:	862a                	mv	a2,a0
   105ec:	00a7da63          	bge	a5,a0,0x10600
   105f0:	0a2e37b7          	lui	a5,0xa2e3
   105f4:	e2e7879b          	addiw	a5,a5,-466
   105f8:	20f12623          	sw	a5,524(sp)
   105fc:	20000613          	li	a2,512
   10600:	080c                	addi	a1,sp,16
   10602:	4505                	li	a0,1
   10604:	660030ef          	jal	ra,0x13c64
   10608:	21813083          	ld	ra,536(sp)
   1060c:	2501                	sext.w	a0,a0
   1060e:	26010113          	addi	sp,sp,608
   10612:	8082                	ret
   10614:	000197b7          	lui	a5,0x19
   10618:	8781b503          	ld	a0,-1928(gp)
   1061c:	1187b783          	ld	a5,280(a5) # 0x19118
   10620:	02f50533          	mul	a0,a0,a5
   10624:	0505                	addi	a0,a0,1
   10626:	02f507b3          	mul	a5,a0,a5
   1062a:	0785                	addi	a5,a5,1
   1062c:	86f1bc23          	sd	a5,-1928(gp)
   10630:	577d                	li	a4,-1
   10632:	1702                	slli	a4,a4,0x20
   10634:	8d79                	and	a0,a0,a4
   10636:	9381                	srli	a5,a5,0x20
   10638:	8d5d                	or	a0,a0,a5
   1063a:	8082                	ret
   1063c:	86a1bc23          	sd	a0,-1928(gp)
   10640:	8082                	ret
   10642:	1101                	addi	sp,sp,-32
   10644:	e822                	sd	s0,16(sp)
   10646:	547d                	li	s0,-1
   10648:	02a47433          	remu	s0,s0,a0
   1064c:	e426                	sd	s1,8(sp)
   1064e:	ec06                	sd	ra,24(sp)
   10650:	84aa                	mv	s1,a0
   10652:	fff44413          	not	s0,s0
   10656:	fbfff0ef          	jal	ra,0x10614
   1065a:	fe857ee3          	bgeu	a0,s0,0x10656
   1065e:	60e2                	ld	ra,24(sp)
   10660:	6442                	ld	s0,16(sp)
   10662:	02957533          	remu	a0,a0,s1
   10666:	64a2                	ld	s1,8(sp)
   10668:	6105                	addi	sp,sp,32
   1066a:	8082                	ret
   1066c:	7139                	addi	sp,sp,-64
   1066e:	f822                	sd	s0,48(sp)
   10670:	00361413          	slli	s0,a2,0x3
   10674:	f426                	sd	s1,40(sp)
   10676:	fc06                	sd	ra,56(sp)
   10678:	84aa                	mv	s1,a0
   1067a:	942a                	add	s0,s0,a0
   1067c:	e611                	bnez	a2,0x10688
   1067e:	70e2                	ld	ra,56(sp)
   10680:	7442                	ld	s0,48(sp)
   10682:	74a2                	ld	s1,40(sp)
   10684:	6121                	addi	sp,sp,64
   10686:	8082                	ret
   10688:	00d60533          	add	a0,a2,a3
   1068c:	ec2e                	sd	a1,24(sp)
   1068e:	e836                	sd	a3,16(sp)
   10690:	e432                	sd	a2,8(sp)
   10692:	fb1ff0ef          	jal	ra,0x10642
   10696:	66c2                	ld	a3,16(sp)
   10698:	ff843783          	ld	a5,-8(s0)
   1069c:	6622                	ld	a2,8(sp)
   1069e:	65e2                	ld	a1,24(sp)
   106a0:	00d57a63          	bgeu	a0,a3,0x106b4
   106a4:	050e                	slli	a0,a0,0x3
   106a6:	952e                	add	a0,a0,a1
   106a8:	6118                	ld	a4,0(a0)
   106aa:	167d                	addi	a2,a2,-1
   106ac:	1461                	addi	s0,s0,-8
   106ae:	e018                	sd	a4,0(s0)
   106b0:	e11c                	sd	a5,0(a0)
   106b2:	b7e9                	j	0x1067c
   106b4:	8d15                	sub	a0,a0,a3
   106b6:	050e                	slli	a0,a0,0x3
   106b8:	9526                	add	a0,a0,s1
   106ba:	b7fd                	j	0x106a8
   106bc:	8d89                	sub	a1,a1,a0
   106be:	0585                	addi	a1,a1,1
   106c0:	e199                	bnez	a1,0x106c6
   106c2:	f53ff06f          	j	0x10614
   106c6:	1141                	addi	sp,sp,-16
   106c8:	e022                	sd	s0,0(sp)
   106ca:	842a                	mv	s0,a0
   106cc:	852e                	mv	a0,a1
   106ce:	e406                	sd	ra,8(sp)
   106d0:	f73ff0ef          	jal	ra,0x10642
   106d4:	9522                	add	a0,a0,s0
   106d6:	60a2                	ld	ra,8(sp)
   106d8:	6402                	ld	s0,0(sp)
   106da:	0141                	addi	sp,sp,16
   106dc:	8082                	ret
   106de:	862e                	mv	a2,a1
   106e0:	4681                	li	a3,0
   106e2:	4581                	li	a1,0
   106e4:	f89ff06f          	j	0x1066c
   106e8:	4781                	li	a5,0
   106ea:	00b79563          	bne	a5,a1,0x106f4
   106ee:	85be                	mv	a1,a5
   106f0:	fefff06f          	j	0x106de
   106f4:	00379713          	slli	a4,a5,0x3
   106f8:	972a                	add	a4,a4,a0
   106fa:	e31c                	sd	a5,0(a4)
   106fc:	0785                	addi	a5,a5,1
   106fe:	b7f5                	j	0x106ea
   10700:	00b57f63          	bgeu	a0,a1,0x1071e
   10704:	557d                	li	a0,-1
   10706:	8082                	ret
   10708:	557d                	li	a0,-1
   1070a:	60a6                	ld	ra,72(sp)
   1070c:	6406                	ld	s0,64(sp)
   1070e:	74e2                	ld	s1,56(sp)
   10710:	7942                	ld	s2,48(sp)
   10712:	79a2                	ld	s3,40(sp)
   10714:	7a02                	ld	s4,32(sp)
   10716:	6ae2                	ld	s5,24(sp)
   10718:	6b42                	ld	s6,16(sp)
   1071a:	6161                	addi	sp,sp,80
   1071c:	8082                	ret
   1071e:	715d                	addi	sp,sp,-80
   10720:	e0a2                	sd	s0,64(sp)
   10722:	fc26                	sd	s1,56(sp)
   10724:	f84a                	sd	s2,48(sp)
   10726:	e486                	sd	ra,72(sp)
   10728:	f44e                	sd	s3,40(sp)
   1072a:	f052                	sd	s4,32(sp)
   1072c:	ec56                	sd	s5,24(sp)
   1072e:	e85a                	sd	s6,16(sp)
   10730:	47bd                	li	a5,15
   10732:	84aa                	mv	s1,a0
   10734:	842e                	mv	s0,a1
   10736:	8932                	mv	s2,a2
   10738:	02a7e463          	bltu	a5,a0,0x10760
   1073c:	e019                	bnez	s0,0x10742
   1073e:	4501                	li	a0,0
   10740:	b7e9                	j	0x1070a
   10742:	8526                	mv	a0,s1
   10744:	fff48993          	addi	s3,s1,-1
   10748:	efbff0ef          	jal	ra,0x10642
   1074c:	00857863          	bgeu	a0,s0,0x1075c
   10750:	147d                	addi	s0,s0,-1
   10752:	00341793          	slli	a5,s0,0x3
   10756:	97ca                	add	a5,a5,s2
   10758:	0137b023          	sd	s3,0(a5)
   1075c:	84ce                	mv	s1,s3
   1075e:	bff9                	j	0x1073c
   10760:	479d                	li	a5,7
   10762:	02b7eb63          	bltu	a5,a1,0x10798
   10766:	4981                	li	s3,0
   10768:	a01d                	j	0x1078e
   1076a:	00399a13          	slli	s4,s3,0x3
   1076e:	8526                	mv	a0,s1
   10770:	ed3ff0ef          	jal	ra,0x10642
   10774:	9a4a                	add	s4,s4,s2
   10776:	00aa3023          	sd	a0,0(s4)
   1077a:	4781                	li	a5,0
   1077c:	00379713          	slli	a4,a5,0x3
   10780:	974a                	add	a4,a4,s2
   10782:	6318                	ld	a4,0(a4)
   10784:	00e51863          	bne	a0,a4,0x10794
   10788:	00f99363          	bne	s3,a5,0x1078e
   1078c:	0985                	addi	s3,s3,1
   1078e:	fc89eee3          	bltu	s3,s0,0x1076a
   10792:	b775                	j	0x1073e
   10794:	0785                	addi	a5,a5,1
   10796:	b7dd                	j	0x1077c
   10798:	4795                	li	a5,5
   1079a:	02f587b3          	mul	a5,a1,a5
   1079e:	04f56563          	bltu	a0,a5,0x107e8
   107a2:	00159793          	slli	a5,a1,0x1
   107a6:	49c1                	li	s3,16
   107a8:	08f9eb63          	bltu	s3,a5,0x1083e
   107ac:	45a1                	li	a1,8
   107ae:	854e                	mv	a0,s3
   107b0:	0b5000ef          	jal	ra,0x11064
   107b4:	8a2a                	mv	s4,a0
   107b6:	d929                	beqz	a0,0x10708
   107b8:	4a81                	li	s5,0
   107ba:	fff98b13          	addi	s6,s3,-1
   107be:	8526                	mv	a0,s1
   107c0:	e83ff0ef          	jal	ra,0x10642
   107c4:	0505                	addi	a0,a0,1
   107c6:	016577b3          	and	a5,a0,s6
   107ca:	4685                	li	a3,1
   107cc:	00379713          	slli	a4,a5,0x3
   107d0:	9752                	add	a4,a4,s4
   107d2:	6310                	ld	a2,0(a4)
   107d4:	e63d                	bnez	a2,0x10842
   107d6:	e308                	sd	a0,0(a4)
   107d8:	0a85                	addi	s5,s5,1
   107da:	fe8ae2e3          	bltu	s5,s0,0x107be
   107de:	4781                	li	a5,0
   107e0:	07379863          	bne	a5,s3,0x10850
   107e4:	8552                	mv	a0,s4
   107e6:	a089                	j	0x10828
   107e8:	40b50633          	sub	a2,a0,a1
   107ec:	00361513          	slli	a0,a2,0x3
   107f0:	e432                	sd	a2,8(sp)
   107f2:	5cb000ef          	jal	ra,0x115bc
   107f6:	89aa                	mv	s3,a0
   107f8:	f00508e3          	beqz	a0,0x10708
   107fc:	6622                	ld	a2,8(sp)
   107fe:	4781                	li	a5,0
   10800:	00379713          	slli	a4,a5,0x3
   10804:	974a                	add	a4,a4,s2
   10806:	e31c                	sd	a5,0(a4)
   10808:	0785                	addi	a5,a5,1
   1080a:	fef41be3          	bne	s0,a5,0x10800
   1080e:	86ce                	mv	a3,s3
   10810:	873e                	mv	a4,a5
   10812:	00971e63          	bne	a4,s1,0x1082e
   10816:	02c7f063          	bgeu	a5,a2,0x10836
   1081a:	86b2                	mv	a3,a2
   1081c:	85ce                	mv	a1,s3
   1081e:	863e                	mv	a2,a5
   10820:	854a                	mv	a0,s2
   10822:	e4bff0ef          	jal	ra,0x1066c
   10826:	854e                	mv	a0,s3
   10828:	391000ef          	jal	ra,0x113b8
   1082c:	bf09                	j	0x1073e
   1082e:	e298                	sd	a4,0(a3)
   10830:	0705                	addi	a4,a4,1
   10832:	06a1                	addi	a3,a3,8
   10834:	bff9                	j	0x10812
   10836:	86be                	mv	a3,a5
   10838:	85ca                	mv	a1,s2
   1083a:	854e                	mv	a0,s3
   1083c:	b7dd                	j	0x10822
   1083e:	0986                	slli	s3,s3,0x1
   10840:	b7a5                	j	0x107a8
   10842:	f6c50ee3          	beq	a0,a2,0x107be
   10846:	97b6                	add	a5,a5,a3
   10848:	00fb77b3          	and	a5,s6,a5
   1084c:	0685                	addi	a3,a3,1
   1084e:	bfbd                	j	0x107cc
   10850:	00379713          	slli	a4,a5,0x3
   10854:	9752                	add	a4,a4,s4
   10856:	6318                	ld	a4,0(a4)
   10858:	c709                	beqz	a4,0x10862
   1085a:	177d                	addi	a4,a4,-1
   1085c:	00e93023          	sd	a4,0(s2)
   10860:	0921                	addi	s2,s2,8
   10862:	0785                	addi	a5,a5,1
   10864:	bfb5                	j	0x107e0
   10866:	7179                	addi	sp,sp,-48
   10868:	f022                	sd	s0,32(sp)
   1086a:	842e                	mv	s0,a1
   1086c:	858a                	mv	a1,sp
   1086e:	e84a                	sd	s2,16(sp)
   10870:	f406                	sd	ra,40(sp)
   10872:	ec26                	sd	s1,24(sp)
   10874:	892a                	mv	s2,a0
   10876:	150010ef          	jal	ra,0x119c6
   1087a:	c515                	beqz	a0,0x108a6
   1087c:	47a000ef          	jal	ra,0x10cf6
   10880:	4108                	lw	a0,0(a0)
   10882:	4b2000ef          	jal	ra,0x10d34
   10886:	862a                	mv	a2,a0
   10888:	00017537          	lui	a0,0x17
   1088c:	85ca                	mv	a1,s2
   1088e:	ba050513          	addi	a0,a0,-1120 # 0x16ba0
   10892:	d15ff0ef          	jal	ra,0x105a6
   10896:	54fd                	li	s1,-1
   10898:	70a2                	ld	ra,40(sp)
   1089a:	7402                	ld	s0,32(sp)
   1089c:	8526                	mv	a0,s1
   1089e:	6942                	ld	s2,16(sp)
   108a0:	64e2                	ld	s1,24(sp)
   108a2:	6145                	addi	sp,sp,48
   108a4:	8082                	ret
   108a6:	67a2                	ld	a5,8(sp)
   108a8:	fe87e7e3          	bltu	a5,s0,0x10896
   108ac:	84aa                	mv	s1,a0
   108ae:	00879563          	bne	a5,s0,0x108b8
   108b2:	6782                	ld	a5,0(sp)
   108b4:	fef402e3          	beq	s0,a5,0x10898
   108b8:	858a                	mv	a1,sp
   108ba:	854a                	mv	a0,s2
   108bc:	e422                	sd	s0,8(sp)
   108be:	e022                	sd	s0,0(sp)
   108c0:	1ce010ef          	jal	ra,0x11a8e
   108c4:	d971                	beqz	a0,0x10898
   108c6:	430000ef          	jal	ra,0x10cf6
   108ca:	4108                	lw	a0,0(a0)
   108cc:	468000ef          	jal	ra,0x10d34
   108d0:	86aa                	mv	a3,a0
   108d2:	00017537          	lui	a0,0x17
   108d6:	8622                	mv	a2,s0
   108d8:	85ca                	mv	a1,s2
   108da:	bd050513          	addi	a0,a0,-1072 # 0x16bd0
   108de:	cc9ff0ef          	jal	ra,0x105a6
   108e2:	bf55                	j	0x10896
   108e4:	000175b7          	lui	a1,0x17
   108e8:	1141                	addi	sp,sp,-16
   108ea:	c0858593          	addi	a1,a1,-1016 # 0x16c08
   108ee:	4501                	li	a0,0
   108f0:	e022                	sd	s0,0(sp)
   108f2:	e406                	sd	ra,8(sp)
   108f4:	61c000ef          	jal	ra,0x10f10
   108f8:	00017437          	lui	s0,0x17
   108fc:	e921                	bnez	a0,0x1094c
   108fe:	000175b7          	lui	a1,0x17
   10902:	c1058593          	addi	a1,a1,-1008 # 0x16c10
   10906:	60a000ef          	jal	ra,0x10f10
   1090a:	e129                	bnez	a0,0x1094c
   1090c:	000175b7          	lui	a1,0x17
   10910:	c2058593          	addi	a1,a1,-992 # 0x16c20
   10914:	5fc000ef          	jal	ra,0x10f10
   10918:	e915                	bnez	a0,0x1094c
   1091a:	000175b7          	lui	a1,0x17
   1091e:	c3058593          	addi	a1,a1,-976 # 0x16c30
   10922:	5ee000ef          	jal	ra,0x10f10
   10926:	e11d                	bnez	a0,0x1094c
   10928:	000175b7          	lui	a1,0x17
   1092c:	c4058593          	addi	a1,a1,-960 # 0x16c40
   10930:	5e0000ef          	jal	ra,0x10f10
   10934:	ed01                	bnez	a0,0x1094c
   10936:	c5040593          	addi	a1,s0,-944 # 0x16c50
   1093a:	5d6000ef          	jal	ra,0x10f10
   1093e:	e519                	bnez	a0,0x1094c
   10940:	000175b7          	lui	a1,0x17
   10944:	c0058593          	addi	a1,a1,-1024 # 0x16c00
   10948:	5c8000ef          	jal	ra,0x10f10
   1094c:	4539                	li	a0,14
   1094e:	5b8000ef          	jal	ra,0x10f06
   10952:	c5040593          	addi	a1,s0,-944
   10956:	531020ef          	jal	ra,0x13686
   1095a:	cd11                	beqz	a0,0x10976
   1095c:	4539                	li	a0,14
   1095e:	5a8000ef          	jal	ra,0x10f06
   10962:	6402                	ld	s0,0(sp)
   10964:	60a2                	ld	ra,8(sp)
   10966:	85aa                	mv	a1,a0
   10968:	00017537          	lui	a0,0x17
   1096c:	c5850513          	addi	a0,a0,-936 # 0x16c58
   10970:	0141                	addi	sp,sp,16
   10972:	c35ff06f          	j	0x105a6
   10976:	60a2                	ld	ra,8(sp)
   10978:	6402                	ld	s0,0(sp)
   1097a:	0141                	addi	sp,sp,16
   1097c:	8082                	ret
   1097e:	715d                	addi	sp,sp,-80
   10980:	fc26                	sd	s1,56(sp)
   10982:	54fd                	li	s1,-1
   10984:	f84a                	sd	s2,48(sp)
   10986:	f052                	sd	s4,32(sp)
   10988:	ec56                	sd	s5,24(sp)
   1098a:	e85a                	sd	s6,16(sp)
   1098c:	e486                	sd	ra,72(sp)
   1098e:	e0a2                	sd	s0,64(sp)
   10990:	f44e                	sd	s3,40(sp)
   10992:	e45e                	sd	s7,8(sp)
   10994:	e062                	sd	s8,0(sp)
   10996:	8a2a                	mv	s4,a0
   10998:	8aae                	mv	s5,a1
   1099a:	8b32                	mv	s6,a2
   1099c:	4901                	li	s2,0
   1099e:	14fe                	slli	s1,s1,0x3f
   109a0:	00090b9b          	sext.w	s7,s2
   109a4:	8426                	mv	s0,s1
   109a6:	89a6                	mv	s3,s1
   109a8:	4579                	li	a0,30
   109aa:	094000ef          	jal	ra,0x10a3e
   109ae:	04a9f063          	bgeu	s3,a0,0x109ee
   109b2:	4579                	li	a0,30
   109b4:	08a000ef          	jal	ra,0x10a3e
   109b8:	40a00533          	neg	a0,a0
   109bc:	8c69                	and	s0,s0,a0
   109be:	c03d                	beqz	s0,0x10a24
   109c0:	4781                	li	a5,0
   109c2:	577d                	li	a4,-1
   109c4:	02200693          	li	a3,34
   109c8:	4601                	li	a2,0
   109ca:	85a2                	mv	a1,s0
   109cc:	4501                	li	a0,0
   109ce:	10c010ef          	jal	ra,0x11ada
   109d2:	57fd                	li	a5,-1
   109d4:	04f50763          	beq	a0,a5,0x10a22
   109d8:	016bd963          	bge	s7,s6,0x109ea
   109dc:	00391793          	slli	a5,s2,0x3
   109e0:	00fa0733          	add	a4,s4,a5
   109e4:	e308                	sd	a0,0(a4)
   109e6:	97d6                	add	a5,a5,s5
   109e8:	e380                	sd	s0,0(a5)
   109ea:	0905                	addi	s2,s2,1
   109ec:	bf55                	j	0x109a0
   109ee:	4781                	li	a5,0
   109f0:	577d                	li	a4,-1
   109f2:	02200693          	li	a3,34
   109f6:	4601                	li	a2,0
   109f8:	85a2                	mv	a1,s0
   109fa:	4501                	li	a0,0
   109fc:	0de010ef          	jal	ra,0x11ada
   10a00:	57fd                	li	a5,-1
   10a02:	0019dc13          	srli	s8,s3,0x1
   10a06:	00f51663          	bne	a0,a5,0x10a12
   10a0a:	41840433          	sub	s0,s0,s8
   10a0e:	89e2                	mv	s3,s8
   10a10:	bf61                	j	0x109a8
   10a12:	85a2                	mv	a1,s0
   10a14:	19c010ef          	jal	ra,0x11bb0
   10a18:	01341363          	bne	s0,s3,0x10a1e
   10a1c:	84a2                	mv	s1,s0
   10a1e:	9462                	add	s0,s0,s8
   10a20:	b7fd                	j	0x10a0e
   10a22:	5bfd                	li	s7,-1
   10a24:	60a6                	ld	ra,72(sp)
   10a26:	6406                	ld	s0,64(sp)
   10a28:	855e                	mv	a0,s7
   10a2a:	74e2                	ld	s1,56(sp)
   10a2c:	7942                	ld	s2,48(sp)
   10a2e:	79a2                	ld	s3,40(sp)
   10a30:	7a02                	ld	s4,32(sp)
   10a32:	6ae2                	ld	s5,24(sp)
   10a34:	6b42                	ld	s6,16(sp)
   10a36:	6ba2                	ld	s7,8(sp)
   10a38:	6c02                	ld	s8,0(sp)
   10a3a:	6161                	addi	sp,sp,80
   10a3c:	8082                	ret
   10a3e:	7165                	addi	sp,sp,-400
   10a40:	e706                	sd	ra,392(sp)
   10a42:	e322                	sd	s0,384(sp)
   10a44:	fea6                	sd	s1,376(sp)
   10a46:	0f800793          	li	a5,248
   10a4a:	00a7ec63          	bltu	a5,a0,0x10a62
   10a4e:	675d                	lui	a4,0x17
   10a50:	00151793          	slli	a5,a0,0x1
   10a54:	cc870713          	addi	a4,a4,-824 # 0x16cc8
   10a58:	97ba                	add	a5,a5,a4
   10a5a:	842a                	mv	s0,a0
   10a5c:	00079503          	lh	a0,0(a5)
   10a60:	e919                	bnez	a0,0x10a76
   10a62:	294000ef          	jal	ra,0x10cf6
   10a66:	47d9                	li	a5,22
   10a68:	c11c                	sw	a5,0(a0)
   10a6a:	557d                	li	a0,-1
   10a6c:	60ba                	ld	ra,392(sp)
   10a6e:	641a                	ld	s0,384(sp)
   10a70:	74f6                	ld	s1,376(sp)
   10a72:	6159                	addi	sp,sp,400
   10a74:	8082                	ret
   10a76:	0005079b          	sext.w	a5,a0
   10a7a:	54fd                	li	s1,-1
   10a7c:	fe97d8e3          	bge	a5,s1,0x10a6c
   10a80:	f0000713          	li	a4,-256
   10a84:	02e7d063          	bge	a5,a4,0x10aa4
   10a88:	6791                	lui	a5,0x4
   10a8a:	17fd                	addi	a5,a5,-1
   10a8c:	8d7d                	and	a0,a0,a5
   10a8e:	1542                	slli	a0,a0,0x30
   10a90:	858a                	mv	a1,sp
   10a92:	9141                	srli	a0,a0,0x30
   10a94:	733000ef          	jal	ra,0x119c6
   10a98:	6502                	ld	a0,0(sp)
   10a9a:	fc0559e3          	bgez	a0,0x10a6c
   10a9e:	0014d513          	srli	a0,s1,0x1
   10aa2:	b7e9                	j	0x10a6c
   10aa4:	fff5079b          	addiw	a5,a0,-1
   10aa8:	0ff7f793          	zext.b	a5,a5
   10aac:	4725                	li	a4,9
   10aae:	faf76fe3          	bltu	a4,a5,0x10a6c
   10ab2:	675d                	lui	a4,0x17
   10ab4:	078a                	slli	a5,a5,0x2
   10ab6:	ca070713          	addi	a4,a4,-864 # 0x16ca0
   10aba:	97ba                	add	a5,a5,a4
   10abc:	439c                	lw	a5,0(a5)
   10abe:	8782                	jr	a5
   10ac0:	00020537          	lui	a0,0x20
   10ac4:	b765                	j	0x10a6c
   10ac6:	6521                	lui	a0,0x8
   10ac8:	b755                	j	0x10a6c
   10aca:	7401b503          	ld	a0,1856(gp)
   10ace:	bf79                	j	0x10a6c
   10ad0:	80000537          	lui	a0,0x80000
   10ad4:	fff54513          	not	a0,a0
   10ad8:	bf51                	j	0x10a6c
   10ada:	08000613          	li	a2,128
   10ade:	4581                	li	a1,0
   10ae0:	850a                	mv	a0,sp
   10ae2:	265020ef          	jal	ra,0x13546
   10ae6:	4785                	li	a5,1
   10ae8:	00f10023          	sb	a5,0(sp)
   10aec:	07b00893          	li	a7,123
   10af0:	4501                	li	a0,0
   10af2:	08000593          	li	a1,128
   10af6:	860a                	mv	a2,sp
   10af8:	00000073          	ecall
   10afc:	4701                	li	a4,0
   10afe:	4501                	li	a0,0
   10b00:	08000613          	li	a2,128
   10b04:	1a9c                	addi	a5,sp,368
   10b06:	00e786b3          	add	a3,a5,a4
   10b0a:	e906c783          	lbu	a5,-368(a3) # 0x7f7ffe90
   10b0e:	e789                	bnez	a5,0x10b18
   10b10:	2705                	addiw	a4,a4,1
   10b12:	fec719e3          	bne	a4,a2,0x10b04
   10b16:	bf99                	j	0x10a6c
   10b18:	fff7859b          	addiw	a1,a5,-1
   10b1c:	8fed                	and	a5,a5,a1
   10b1e:	e8f68823          	sb	a5,-368(a3)
   10b22:	2505                	addiw	a0,a0,1
   10b24:	b7c5                	j	0x10b04
   10b26:	850a                	mv	a0,sp
   10b28:	2f8000ef          	jal	ra,0x10e20
   10b2c:	57a6                	lw	a5,104(sp)
   10b2e:	e399                	bnez	a5,0x10b34
   10b30:	4785                	li	a5,1
   10b32:	d4be                	sw	a5,104(sp)
   10b34:	05500793          	li	a5,85
   10b38:	02f41063          	bne	s0,a5,0x10b58
   10b3c:	7782                	ld	a5,32(sp)
   10b3e:	06816503          	lwu	a0,104(sp)
   10b42:	02f50533          	mul	a0,a0,a5
   10b46:	7401b783          	ld	a5,1856(gp)
   10b4a:	02f55533          	divu	a0,a0,a5
   10b4e:	f0055fe3          	bgez	a0,0x10a6c
   10b52:	557d                	li	a0,-1
   10b54:	8105                	srli	a0,a0,0x1
   10b56:	bf19                	j	0x10a6c
   10b58:	7522                	ld	a0,40(sp)
   10b5a:	77e2                	ld	a5,56(sp)
   10b5c:	97aa                	add	a5,a5,a0
   10b5e:	b7c5                	j	0x10b3e
   10b60:	4501                	li	a0,0
   10b62:	b729                	j	0x10a6c
   10b64:	00031537          	lui	a0,0x31
   10b68:	06950513          	addi	a0,a0,105 # 0x31069
   10b6c:	b701                	j	0x10a6c
   10b6e:	8082                	ret
   10b70:	8082                	ret
   10b72:	7109                	addi	sp,sp,-384
   10b74:	f2ca                	sd	s2,352(sp)
   10b76:	03010913          	addi	s2,sp,48
   10b7a:	faa2                	sd	s0,368(sp)
   10b7c:	f6a6                	sd	s1,360(sp)
   10b7e:	842e                	mv	s0,a1
   10b80:	84aa                	mv	s1,a0
   10b82:	13000613          	li	a2,304
   10b86:	4581                	li	a1,0
   10b88:	854a                	mv	a0,s2
   10b8a:	fe86                	sd	ra,376(sp)
   10b8c:	1bb020ef          	jal	ra,0x13546
   10b90:	9091b023          	sd	s1,-1792(gp)
   10b94:	4501                	li	a0,0
   10b96:	00351793          	slli	a5,a0,0x3
   10b9a:	97a6                	add	a5,a5,s1
   10b9c:	639c                	ld	a5,0(a5)
   10b9e:	0505                	addi	a0,a0,1
   10ba0:	fbfd                	bnez	a5,0x10b96
   10ba2:	050e                	slli	a0,a0,0x3
   10ba4:	9526                	add	a0,a0,s1
   10ba6:	70818793          	addi	a5,gp,1800
   10baa:	eb88                	sd	a0,16(a5)
   10bac:	70818493          	addi	s1,gp,1800
   10bb0:	02500713          	li	a4,37
   10bb4:	611c                	ld	a5,0(a0)
   10bb6:	e7cd                	bnez	a5,0x10c60
   10bb8:	774a                	ld	a4,176(sp)
   10bba:	70e1b023          	sd	a4,1792(gp)
   10bbe:	7752                	ld	a4,304(sp)
   10bc0:	76e1bc23          	sd	a4,1912(gp)
   10bc4:	7786                	ld	a5,96(sp)
   10bc6:	fc9c                	sd	a5,56(s1)
   10bc8:	e419                	bnez	s0,0x10bd6
   10bca:	7432                	ld	s0,296(sp)
   10bcc:	e409                	bnez	s0,0x10bd6
   10bce:	00017437          	lui	s0,0x17
   10bd2:	c0040413          	addi	s0,s0,-1024 # 0x16c00
   10bd6:	8881b823          	sd	s0,-1904(gp)
   10bda:	8881bc23          	sd	s0,-1896(gp)
   10bde:	02f00693          	li	a3,47
   10be2:	0405                	addi	s0,s0,1
   10be4:	fff44703          	lbu	a4,-1(s0)
   10be8:	e751                	bnez	a4,0x10c74
   10bea:	854a                	mv	a0,s2
   10bec:	1f6030ef          	jal	ra,0x13de2
   10bf0:	756e                	ld	a0,248(sp)
   10bf2:	f7fff0ef          	jal	ra,0x10b70
   10bf6:	672a                	ld	a4,136(sp)
   10bf8:	67ca                	ld	a5,144(sp)
   10bfa:	00f71863          	bne	a4,a5,0x10c0a
   10bfe:	676a                	ld	a4,152(sp)
   10c00:	778a                	ld	a5,160(sp)
   10c02:	00f71463          	bne	a4,a5,0x10c0a
   10c06:	77ae                	ld	a5,232(sp)
   10c08:	c3c9                	beqz	a5,0x10c8a
   10c0a:	f002                	sd	zero,32(sp)
   10c0c:	4785                	li	a5,1
   10c0e:	f402                	sd	zero,40(sp)
   10c10:	d03e                	sw	a5,32(sp)
   10c12:	4789                	li	a5,2
   10c14:	ec02                	sd	zero,24(sp)
   10c16:	d43e                	sw	a5,40(sp)
   10c18:	e402                	sd	zero,8(sp)
   10c1a:	e802                	sd	zero,16(sp)
   10c1c:	04900893          	li	a7,73
   10c20:	0828                	addi	a0,sp,24
   10c22:	458d                	li	a1,3
   10c24:	0030                	addi	a2,sp,8
   10c26:	4681                	li	a3,0
   10c28:	4721                	li	a4,8
   10c2a:	00000073          	ecall
   10c2e:	00020737          	lui	a4,0x20
   10c32:	083c                	addi	a5,sp,24
   10c34:	00017837          	lui	a6,0x17
   10c38:	0709                	addi	a4,a4,2
   10c3a:	0067d683          	lhu	a3,6(a5) # 0x4006
   10c3e:	0206f693          	andi	a3,a3,32
   10c42:	ce9d                	beqz	a3,0x10c80
   10c44:	03800893          	li	a7,56
   10c48:	f9c00513          	li	a0,-100
   10c4c:	a5080593          	addi	a1,a6,-1456 # 0x16a50
   10c50:	863a                	mv	a2,a4
   10c52:	00000073          	ecall
   10c56:	02055563          	bgez	a0,0x10c80
   10c5a:	00000023          	sb	zero,0(zero) # 0x0
   10c5e:	9002                	ebreak
   10c60:	00f76863          	bltu	a4,a5,0x10c70
   10c64:	1294                	addi	a3,sp,352
   10c66:	078e                	slli	a5,a5,0x3
   10c68:	97b6                	add	a5,a5,a3
   10c6a:	6514                	ld	a3,8(a0)
   10c6c:	ecd7b823          	sd	a3,-304(a5)
   10c70:	0541                	addi	a0,a0,16
   10c72:	b789                	j	0x10bb4
   10c74:	00d71463          	bne	a4,a3,0x10c7c
   10c78:	8881bc23          	sd	s0,-1896(gp)
   10c7c:	0405                	addi	s0,s0,1
   10c7e:	b79d                	j	0x10be4
   10c80:	07a1                	addi	a5,a5,8
   10c82:	faf91ce3          	bne	s2,a5,0x10c3a
   10c86:	4785                	li	a5,1
   10c88:	c49c                	sw	a5,8(s1)
   10c8a:	70f6                	ld	ra,376(sp)
   10c8c:	7456                	ld	s0,368(sp)
   10c8e:	74b6                	ld	s1,360(sp)
   10c90:	7916                	ld	s2,352(sp)
   10c92:	6119                	addi	sp,sp,384
   10c94:	8082                	ret
   10c96:	1101                	addi	sp,sp,-32
   10c98:	e822                	sd	s0,16(sp)
   10c9a:	e426                	sd	s1,8(sp)
   10c9c:	6465                	lui	s0,0x19
   10c9e:	64e5                	lui	s1,0x19
   10ca0:	ec06                	sd	ra,24(sp)
   10ca2:	ff040413          	addi	s0,s0,-16 # 0x18ff0
   10ca6:	ec9ff0ef          	jal	ra,0x10b6e
   10caa:	ff848493          	addi	s1,s1,-8 # 0x18ff8
   10cae:	00946763          	bltu	s0,s1,0x10cbc
   10cb2:	60e2                	ld	ra,24(sp)
   10cb4:	6442                	ld	s0,16(sp)
   10cb6:	64a2                	ld	s1,8(sp)
   10cb8:	6105                	addi	sp,sp,32
   10cba:	8082                	ret
   10cbc:	601c                	ld	a5,0(s0)
   10cbe:	0421                	addi	s0,s0,8
   10cc0:	9782                	jalr	a5
   10cc2:	b7f5                	j	0x10cae
   10cc4:	7179                	addi	sp,sp,-48
   10cc6:	f022                	sd	s0,32(sp)
   10cc8:	8432                	mv	s0,a2
   10cca:	00158613          	addi	a2,a1,1
   10cce:	ec26                	sd	s1,24(sp)
   10cd0:	060e                	slli	a2,a2,0x3
   10cd2:	84ae                	mv	s1,a1
   10cd4:	600c                	ld	a1,0(s0)
   10cd6:	9622                	add	a2,a2,s0
   10cd8:	e84a                	sd	s2,16(sp)
   10cda:	892a                	mv	s2,a0
   10cdc:	8532                	mv	a0,a2
   10cde:	f406                	sd	ra,40(sp)
   10ce0:	e432                	sd	a2,8(sp)
   10ce2:	e91ff0ef          	jal	ra,0x10b72
   10ce6:	fb1ff0ef          	jal	ra,0x10c96
   10cea:	6622                	ld	a2,8(sp)
   10cec:	85a2                	mv	a1,s0
   10cee:	8526                	mv	a0,s1
   10cf0:	9902                	jalr	s2
   10cf2:	07a000ef          	jal	ra,0x10d6c
   10cf6:	8512                	mv	a0,tp
   10cf8:	f3c50513          	addi	a0,a0,-196
   10cfc:	8082                	ret
   10cfe:	67dd                	lui	a5,0x17
   10d00:	862a                	mv	a2,a0
   10d02:	ec078513          	addi	a0,a5,-320 # 0x16ec0
   10d06:	4701                	li	a4,0
   10d08:	71050813          	addi	a6,a0,1808
   10d0c:	00e806b3          	add	a3,a6,a4
   10d10:	0006c683          	lbu	a3,0(a3)
   10d14:	0007079b          	sext.w	a5,a4
   10d18:	c681                	beqz	a3,0x10d20
   10d1a:	0705                	addi	a4,a4,1
   10d1c:	fec698e3          	bne	a3,a2,0x10d0c
   10d20:	e781                	bnez	a5,0x10d28
   10d22:	758c                	ld	a1,40(a1)
   10d24:	1160006f          	j	0x10e3a
   10d28:	00054703          	lbu	a4,0(a0)
   10d2c:	0505                	addi	a0,a0,1
   10d2e:	ff6d                	bnez	a4,0x10d28
   10d30:	37fd                	addiw	a5,a5,-1
   10d32:	b7fd                	j	0x10d20
   10d34:	8792                	mv	a5,tp
   10d36:	fc07b583          	ld	a1,-64(a5)
   10d3a:	fc5ff06f          	j	0x10cfe
   10d3e:	8082                	ret
   10d40:	1101                	addi	sp,sp,-32
   10d42:	e822                	sd	s0,16(sp)
   10d44:	e426                	sd	s1,8(sp)
   10d46:	6465                	lui	s0,0x19
   10d48:	64e5                	lui	s1,0x19
   10d4a:	ec06                	sd	ra,24(sp)
   10d4c:	00040413          	mv	s0,s0
   10d50:	ff848493          	addi	s1,s1,-8 # 0x18ff8
   10d54:	0084e863          	bltu	s1,s0,0x10d64
   10d58:	6442                	ld	s0,16(sp)
   10d5a:	60e2                	ld	ra,24(sp)
   10d5c:	64a2                	ld	s1,8(sp)
   10d5e:	6105                	addi	sp,sp,32
   10d60:	fdfff06f          	j	0x10d3e
   10d64:	1461                	addi	s0,s0,-8
   10d66:	601c                	ld	a5,0(s0)
   10d68:	9782                	jalr	a5
   10d6a:	b7ed                	j	0x10d54
   10d6c:	1101                	addi	sp,sp,-32
   10d6e:	e42a                	sd	a0,8(sp)
   10d70:	ec06                	sd	ra,24(sp)
   10d72:	fcdff0ef          	jal	ra,0x10d3e
   10d76:	fcbff0ef          	jal	ra,0x10d40
   10d7a:	16c040ef          	jal	ra,0x14ee6
   10d7e:	6522                	ld	a0,8(sp)
   10d80:	14c030ef          	jal	ra,0x13ecc
   10d84:	715d                	addi	sp,sp,-80
   10d86:	e822                	sd	s0,16(sp)
   10d88:	fc3e                	sd	a5,56(sp)
   10d8a:	ec06                	sd	ra,24(sp)
   10d8c:	f032                	sd	a2,32(sp)
   10d8e:	f436                	sd	a3,40(sp)
   10d90:	f83a                	sd	a4,48(sp)
   10d92:	e0c2                	sd	a6,64(sp)
   10d94:	e4c6                	sd	a7,72(sp)
   10d96:	0405f793          	andi	a5,a1,64
   10d9a:	842e                	mv	s0,a1
   10d9c:	eb89                	bnez	a5,0x10dae
   10d9e:	004047b7          	lui	a5,0x404
   10da2:	8fed                	and	a5,a5,a1
   10da4:	004046b7          	lui	a3,0x404
   10da8:	4701                	li	a4,0
   10daa:	00d79563          	bne	a5,a3,0x10db4
   10dae:	5702                	lw	a4,32(sp)
   10db0:	101c                	addi	a5,sp,32
   10db2:	e43e                	sd	a5,8(sp)
   10db4:	1702                	slli	a4,a4,0x20
   10db6:	000206b7          	lui	a3,0x20
   10dba:	4781                	li	a5,0
   10dbc:	862a                	mv	a2,a0
   10dbe:	4801                	li	a6,0
   10dc0:	9301                	srli	a4,a4,0x20
   10dc2:	8ec1                	or	a3,a3,s0
   10dc4:	f9c00593          	li	a1,-100
   10dc8:	03800513          	li	a0,56
   10dcc:	1e7020ef          	jal	ra,0x137b2
   10dd0:	0005079b          	sext.w	a5,a0
   10dd4:	0007cc63          	bltz	a5,0x10dec
   10dd8:	02c41713          	slli	a4,s0,0x2c
   10ddc:	00075863          	bgez	a4,0x10dec
   10de0:	48e5                	li	a7,25
   10de2:	853e                	mv	a0,a5
   10de4:	4589                	li	a1,2
   10de6:	4605                	li	a2,1
   10de8:	00000073          	ecall
   10dec:	853e                	mv	a0,a5
   10dee:	00e000ef          	jal	ra,0x10dfc
   10df2:	60e2                	ld	ra,24(sp)
   10df4:	6442                	ld	s0,16(sp)
   10df6:	2501                	sext.w	a0,a0
   10df8:	6161                	addi	sp,sp,80
   10dfa:	8082                	ret
   10dfc:	77fd                	lui	a5,0xfffff
   10dfe:	02a7f063          	bgeu	a5,a0,0x10e1e
   10e02:	1141                	addi	sp,sp,-16
   10e04:	e022                	sd	s0,0(sp)
   10e06:	e406                	sd	ra,8(sp)
   10e08:	842a                	mv	s0,a0
   10e0a:	eedff0ef          	jal	ra,0x10cf6
   10e0e:	408007bb          	negw	a5,s0
   10e12:	60a2                	ld	ra,8(sp)
   10e14:	6402                	ld	s0,0(sp)
   10e16:	c11c                	sw	a5,0(a0)
   10e18:	557d                	li	a0,-1
   10e1a:	0141                	addi	sp,sp,16
   10e1c:	8082                	ret
   10e1e:	8082                	ret
   10e20:	1141                	addi	sp,sp,-16
   10e22:	e406                	sd	ra,8(sp)
   10e24:	0b300893          	li	a7,179
   10e28:	00000073          	ecall
   10e2c:	fd1ff0ef          	jal	ra,0x10dfc
   10e30:	60a2                	ld	ra,8(sp)
   10e32:	2501                	sext.w	a0,a0
   10e34:	0141                	addi	sp,sp,16
   10e36:	8082                	ret
   10e38:	8082                	ret
   10e3a:	0bc0306f          	j	0x13ef6
   10e3e:	8792                	mv	a5,tp
   10e40:	fc07b783          	ld	a5,-64(a5) # 0xffffffffffffefc0
   10e44:	778c                	ld	a1,40(a5)
   10e46:	0b00306f          	j	0x13ef6
   10e4a:	6741                	lui	a4,0x10
   10e4c:	fff70613          	addi	a2,a4,-1 # 0xffff
   10e50:	4839                	li	a6,14
   10e52:	41055793          	srai	a5,a0,0x10
   10e56:	00c576b3          	and	a3,a0,a2
   10e5a:	01051c63          	bne	a0,a6,0x10e72
   10e5e:	8792                	mv	a5,tp
   10e60:	fc07b783          	ld	a5,-64(a5)
   10e64:	639c                	ld	a5,0(a5)
   10e66:	c3c9                	beqz	a5,0x10ee8
   10e68:	00017537          	lui	a0,0x17
   10e6c:	c5050513          	addi	a0,a0,-944 # 0x16c50
   10e70:	8082                	ret
   10e72:	00c69c63          	bne	a3,a2,0x10e8a
   10e76:	4715                	li	a4,5
   10e78:	08f74263          	blt	a4,a5,0x10efc
   10e7c:	078e                	slli	a5,a5,0x3
   10e7e:	97ae                	add	a5,a5,a1
   10e80:	6398                	ld	a4,0(a5)
   10e82:	cb25                	beqz	a4,0x10ef2
   10e84:	6388                	ld	a0,0(a5)
   10e86:	0541                	addi	a0,a0,16
   10e88:	8082                	ret
   10e8a:	4609                	li	a2,2
   10e8c:	02c78963          	beq	a5,a2,0x10ebe
   10e90:	4615                	li	a2,5
   10e92:	02c78e63          	beq	a5,a2,0x10ece
   10e96:	4605                	li	a2,1
   10e98:	06c79263          	bne	a5,a2,0x10efc
   10e9c:	1779                	addi	a4,a4,-2
   10e9e:	8d79                	and	a0,a0,a4
   10ea0:	ed31                	bnez	a0,0x10efc
   10ea2:	85018513          	addi	a0,gp,-1968
   10ea6:	ea9d                	bnez	a3,0x10edc
   10ea8:	4705                	li	a4,1
   10eaa:	04e78d63          	beq	a5,a4,0x10f04
   10eae:	00054703          	lbu	a4,0(a0)
   10eb2:	cb29                	beqz	a4,0x10f04
   10eb4:	078e                	slli	a5,a5,0x3
   10eb6:	97ae                	add	a5,a5,a1
   10eb8:	638c                	ld	a1,0(a5)
   10eba:	f81ff06f          	j	0x10e3a
   10ebe:	03100713          	li	a4,49
   10ec2:	02d74d63          	blt	a4,a3,0x10efc
   10ec6:	655d                	lui	a0,0x17
   10ec8:	62850513          	addi	a0,a0,1576 # 0x17628
   10ecc:	bfe9                	j	0x10ea6
   10ece:	1771                	addi	a4,a4,-4
   10ed0:	8d79                	and	a0,a0,a4
   10ed2:	e50d                	bnez	a0,0x10efc
   10ed4:	655d                	lui	a0,0x17
   10ed6:	76850513          	addi	a0,a0,1896 # 0x17768
   10eda:	b7f1                	j	0x10ea6
   10edc:	00054703          	lbu	a4,0(a0)
   10ee0:	0505                	addi	a0,a0,1
   10ee2:	ff6d                	bnez	a4,0x10edc
   10ee4:	36fd                	addiw	a3,a3,-1
   10ee6:	b7c1                	j	0x10ea6
   10ee8:	00017537          	lui	a0,0x17
   10eec:	78850513          	addi	a0,a0,1928 # 0x17788
   10ef0:	8082                	ret
   10ef2:	00017537          	lui	a0,0x17
   10ef6:	78050513          	addi	a0,a0,1920 # 0x17780
   10efa:	8082                	ret
   10efc:	00017537          	lui	a0,0x17
   10f00:	c0050513          	addi	a0,a0,-1024 # 0x16c00
   10f04:	8082                	ret
   10f06:	8792                	mv	a5,tp
   10f08:	fc07b583          	ld	a1,-64(a5)
   10f0c:	f3fff06f          	j	0x10e4a
   10f10:	7119                	addi	sp,sp,-128
   10f12:	f8a2                	sd	s0,112(sp)
   10f14:	fc86                	sd	ra,120(sp)
   10f16:	f4a6                	sd	s1,104(sp)
   10f18:	f0ca                	sd	s2,96(sp)
   10f1a:	ecce                	sd	s3,88(sp)
   10f1c:	e8d2                	sd	s4,80(sp)
   10f1e:	e4d6                	sd	s5,72(sp)
   10f20:	e0da                	sd	s6,64(sp)
   10f22:	fc5e                	sd	s7,56(sp)
   10f24:	f862                	sd	s8,48(sp)
   10f26:	f466                	sd	s9,40(sp)
   10f28:	f06a                	sd	s10,32(sp)
   10f2a:	4419                	li	s0,6
   10f2c:	12a46a63          	bltu	s0,a0,0x11060
   10f30:	8a2a                	mv	s4,a0
   10f32:	8a018513          	addi	a0,gp,-1888
   10f36:	892e                	mv	s2,a1
   10f38:	70818493          	addi	s1,gp,1800
   10f3c:	7f0020ef          	jal	ra,0x1372c
   10f40:	0e8a1563          	bne	s4,s0,0x1102a
   10f44:	04090f63          	beqz	s2,0x10fa2
   10f48:	67dd                	lui	a5,0x17
   10f4a:	7907b783          	ld	a5,1936(a5) # 0x17790
   10f4e:	e802                	sd	zero,16(sp)
   10f50:	ec02                	sd	zero,24(sp)
   10f52:	e43e                	sd	a5,8(sp)
   10f54:	4401                	li	s0,0
   10f56:	4bdd                	li	s7,23
   10f58:	4b19                	li	s6,6
   10f5a:	03b00593          	li	a1,59
   10f5e:	854a                	mv	a0,s2
   10f60:	6a6020ef          	jal	ra,0x13606
   10f64:	41250a33          	sub	s4,a0,s2
   10f68:	8aaa                	mv	s5,a0
   10f6a:	034bc063          	blt	s7,s4,0x10f8a
   10f6e:	8652                	mv	a2,s4
   10f70:	85ca                	mv	a1,s2
   10f72:	0028                	addi	a0,sp,8
   10f74:	256020ef          	jal	ra,0x131ca
   10f78:	101c                	addi	a5,sp,32
   10f7a:	9a3e                	add	s4,s4,a5
   10f7c:	fe0a0423          	sb	zero,-24(s4)
   10f80:	000ac783          	lbu	a5,0(s5)
   10f84:	c399                	beqz	a5,0x10f8a
   10f86:	001a8913          	addi	s2,s5,1
   10f8a:	8522                	mv	a0,s0
   10f8c:	002c                	addi	a1,sp,8
   10f8e:	78d020ef          	jal	ra,0x13f1a
   10f92:	00840793          	addi	a5,s0,8 # 0x19008
   10f96:	078e                	slli	a5,a5,0x3
   10f98:	97a6                	add	a5,a5,s1
   10f9a:	e388                	sd	a0,0(a5)
   10f9c:	2405                	addiw	s0,s0,1
   10f9e:	fb641ee3          	bne	s0,s6,0x10f5a
   10fa2:	00017c37          	lui	s8,0x17
   10fa6:	a8818a13          	addi	s4,gp,-1400
   10faa:	4b81                	li	s7,0
   10fac:	4901                	li	s2,0
   10fae:	a8818b13          	addi	s6,gp,-1400
   10fb2:	780c0c13          	addi	s8,s8,1920 # 0x17780
   10fb6:	03b00d13          	li	s10,59
   10fba:	4c99                	li	s9,6
   10fbc:	00890793          	addi	a5,s2,8
   10fc0:	078e                	slli	a5,a5,0x3
   10fc2:	97a6                	add	a5,a5,s1
   10fc4:	639c                	ld	a5,0(a5)
   10fc6:	60b8                	ld	a4,64(s1)
   10fc8:	00f71363          	bne	a4,a5,0x10fce
   10fcc:	2b85                	addiw	s7,s7,1
   10fce:	8462                	mv	s0,s8
   10fd0:	c399                	beqz	a5,0x10fd6
   10fd2:	01078413          	addi	s0,a5,16
   10fd6:	8522                	mv	a0,s0
   10fd8:	6c8020ef          	jal	ra,0x136a0
   10fdc:	8aaa                	mv	s5,a0
   10fde:	862a                	mv	a2,a0
   10fe0:	85a2                	mv	a1,s0
   10fe2:	8552                	mv	a0,s4
   10fe4:	1e6020ef          	jal	ra,0x131ca
   10fe8:	015a07b3          	add	a5,s4,s5
   10fec:	01a78023          	sb	s10,0(a5)
   10ff0:	0a85                	addi	s5,s5,1
   10ff2:	2905                	addiw	s2,s2,1
   10ff4:	9a56                	add	s4,s4,s5
   10ff6:	fd9913e3          	bne	s2,s9,0x10fbc
   10ffa:	fe0a0fa3          	sb	zero,-1(s4)
   10ffe:	8a018513          	addi	a0,gp,-1888
   11002:	772020ef          	jal	ra,0x13774
   11006:	012b8363          	beq	s7,s2,0x1100c
   1100a:	845a                	mv	s0,s6
   1100c:	8522                	mv	a0,s0
   1100e:	70e6                	ld	ra,120(sp)
   11010:	7446                	ld	s0,112(sp)
   11012:	74a6                	ld	s1,104(sp)
   11014:	7906                	ld	s2,96(sp)
   11016:	69e6                	ld	s3,88(sp)
   11018:	6a46                	ld	s4,80(sp)
   1101a:	6aa6                	ld	s5,72(sp)
   1101c:	6b06                	ld	s6,64(sp)
   1101e:	7be2                	ld	s7,56(sp)
   11020:	7c42                	ld	s8,48(sp)
   11022:	7ca2                	ld	s9,40(sp)
   11024:	7d02                	ld	s10,32(sp)
   11026:	6109                	addi	sp,sp,128
   11028:	8082                	ret
   1102a:	008a0413          	addi	s0,s4,8
   1102e:	02090563          	beqz	s2,0x11058
   11032:	85ca                	mv	a1,s2
   11034:	8552                	mv	a0,s4
   11036:	040e                	slli	s0,s0,0x3
   11038:	6e3020ef          	jal	ra,0x13f1a
   1103c:	94a2                	add	s1,s1,s0
   1103e:	e088                	sd	a0,0(s1)
   11040:	01050413          	addi	s0,a0,16
   11044:	e509                	bnez	a0,0x1104e
   11046:	00017437          	lui	s0,0x17
   1104a:	78040413          	addi	s0,s0,1920 # 0x17780
   1104e:	8a018513          	addi	a0,gp,-1888
   11052:	722020ef          	jal	ra,0x13774
   11056:	bf5d                	j	0x1100c
   11058:	040e                	slli	s0,s0,0x3
   1105a:	9426                	add	s0,s0,s1
   1105c:	6008                	ld	a0,0(s0)
   1105e:	b7cd                	j	0x11040
   11060:	4401                	li	s0,0
   11062:	b76d                	j	0x1100c
   11064:	c581                	beqz	a1,0x1106c
   11066:	02b537b3          	mulhu	a5,a0,a1
   1106a:	e789                	bnez	a5,0x11074
   1106c:	02a58533          	mul	a0,a1,a0
   11070:	7760006f          	j	0x117e6
   11074:	1141                	addi	sp,sp,-16
   11076:	e406                	sd	ra,8(sp)
   11078:	c7fff0ef          	jal	ra,0x10cf6
   1107c:	60a2                	ld	ra,8(sp)
   1107e:	47b1                	li	a5,12
   11080:	c11c                	sw	a5,0(a0)
   11082:	4501                	li	a0,0
   11084:	0141                	addi	sp,sp,16
   11086:	8082                	ret
   11088:	7139                	addi	sp,sp,-64
   1108a:	f822                	sd	s0,48(sp)
   1108c:	fc06                	sd	ra,56(sp)
   1108e:	f426                	sd	s1,40(sp)
   11090:	f04a                	sd	s2,32(sp)
   11092:	ec4e                	sd	s3,24(sp)
   11094:	e852                	sd	s4,16(sp)
   11096:	4405                	li	s0,1
   11098:	c111                	beqz	a0,0x1109c
   1109a:	842a                	mv	s0,a0
   1109c:	4795                	li	a5,5
   1109e:	4985                	li	s3,1
   110a0:	a021                	j	0x110a8
   110a2:	37fd                	addiw	a5,a5,-1
   110a4:	c781                	beqz	a5,0x110ac
   110a6:	0986                	slli	s3,s3,0x1
   110a8:	fe89ede3          	bltu	s3,s0,0x110a2
   110ac:	8b818513          	addi	a0,gp,-1864
   110b0:	67c020ef          	jal	ra,0x1372c
   110b4:	8b01b703          	ld	a4,-1872(gp)
   110b8:	57fd                	li	a5,-1
   110ba:	17fe                	slli	a5,a5,0x3f
   110bc:	19fd                	addi	s3,s3,-1
   110be:	40e004b3          	neg	s1,a4
   110c2:	07bd                	addi	a5,a5,15
   110c4:	0134f4b3          	and	s1,s1,s3
   110c8:	89d2                	mv	s3,s4
   110ca:	0287fa63          	bgeu	a5,s0,0x110fe
   110ce:	8a81b783          	ld	a5,-1880(gp)
   110d2:	8f99                	sub	a5,a5,a4
   110d4:	0487f363          	bgeu	a5,s0,0x1111a
   110d8:	0028                	addi	a0,sp,8
   110da:	e422                	sd	s0,8(sp)
   110dc:	086030ef          	jal	ra,0x14162
   110e0:	e10d                	bnez	a0,0x11102
   110e2:	8b818513          	addi	a0,gp,-1864
   110e6:	68e020ef          	jal	ra,0x13774
   110ea:	4481                	li	s1,0
   110ec:	70e2                	ld	ra,56(sp)
   110ee:	7442                	ld	s0,48(sp)
   110f0:	8526                	mv	a0,s1
   110f2:	7902                	ld	s2,32(sp)
   110f4:	74a2                	ld	s1,40(sp)
   110f6:	69e2                	ld	s3,24(sp)
   110f8:	6a42                	ld	s4,16(sp)
   110fa:	6121                	addi	sp,sp,64
   110fc:	8082                	ret
   110fe:	9426                	add	s0,s0,s1
   11100:	b7f9                	j	0x110ce
   11102:	8a81b783          	ld	a5,-1880(gp)
   11106:	00a78663          	beq	a5,a0,0x11112
   1110a:	8c05                	sub	s0,s0,s1
   1110c:	8aa1b823          	sd	a0,-1872(gp)
   11110:	4481                	li	s1,0
   11112:	67a2                	ld	a5,8(sp)
   11114:	953e                	add	a0,a0,a5
   11116:	8aa1b423          	sd	a0,-1880(gp)
   1111a:	8b01b783          	ld	a5,-1872(gp)
   1111e:	8b818513          	addi	a0,gp,-1864
   11122:	943e                	add	s0,s0,a5
   11124:	94be                	add	s1,s1,a5
   11126:	8a81b823          	sd	s0,-1872(gp)
   1112a:	64a020ef          	jal	ra,0x13774
   1112e:	bf7d                	j	0x110ec
   11130:	8115                	srli	a0,a0,0x5
   11132:	fff50793          	addi	a5,a0,-1
   11136:	02000713          	li	a4,32
   1113a:	00f76563          	bltu	a4,a5,0x11144
   1113e:	0007851b          	sext.w	a0,a5
   11142:	8082                	ret
   11144:	1ff00713          	li	a4,511
   11148:	00f76a63          	bltu	a4,a5,0x1115c
   1114c:	655d                	lui	a0,0x17
   1114e:	7a850513          	addi	a0,a0,1960 # 0x177a8
   11152:	838d                	srli	a5,a5,0x3
   11154:	97aa                	add	a5,a5,a0
   11156:	ffc7c503          	lbu	a0,-4(a5)
   1115a:	8082                	ret
   1115c:	6709                	lui	a4,0x2
   1115e:	c0070713          	addi	a4,a4,-1024 # 0x1c00
   11162:	03f00513          	li	a0,63
   11166:	00f76a63          	bltu	a4,a5,0x1117a
   1116a:	655d                	lui	a0,0x17
   1116c:	7a850513          	addi	a0,a0,1960 # 0x177a8
   11170:	839d                	srli	a5,a5,0x7
   11172:	97aa                	add	a5,a5,a0
   11174:	ffc7c503          	lbu	a0,-4(a5)
   11178:	0541                	addi	a0,a0,16
   1117a:	8082                	ret
   1117c:	7401b603          	ld	a2,1856(gp)
   11180:	611c                	ld	a5,0(a0)
   11182:	fbf00713          	li	a4,-65
   11186:	8305                	srli	a4,a4,0x1
   11188:	fff78693          	addi	a3,a5,-1
   1118c:	8f11                	sub	a4,a4,a2
   1118e:	02d77263          	bgeu	a4,a3,0x111b2
   11192:	cb99                	beqz	a5,0x111a8
   11194:	1141                	addi	sp,sp,-16
   11196:	e406                	sd	ra,8(sp)
   11198:	b5fff0ef          	jal	ra,0x10cf6
   1119c:	60a2                	ld	ra,8(sp)
   1119e:	47b1                	li	a5,12
   111a0:	c11c                	sw	a5,0(a0)
   111a2:	557d                	li	a0,-1
   111a4:	0141                	addi	sp,sp,16
   111a6:	8082                	ret
   111a8:	02000793          	li	a5,32
   111ac:	e11c                	sd	a5,0(a0)
   111ae:	4501                	li	a0,0
   111b0:	8082                	ret
   111b2:	02f78793          	addi	a5,a5,47
   111b6:	9b81                	andi	a5,a5,-32
   111b8:	bfd5                	j	0x111ac
   111ba:	70818793          	addi	a5,gp,1800
   111be:	47dc                	lw	a5,12(a5)
   111c0:	2781                	sext.w	a5,a5
   111c2:	cf9d                	beqz	a5,0x11200
   111c4:	1101                	addi	sp,sp,-32
   111c6:	e822                	sd	s0,16(sp)
   111c8:	e426                	sd	s1,8(sp)
   111ca:	e04a                	sd	s2,0(sp)
   111cc:	ec06                	sd	ra,24(sp)
   111ce:	842a                	mv	s0,a0
   111d0:	4485                	li	s1,1
   111d2:	00450913          	addi	s2,a0,4
   111d6:	100427af          	lr.w	a5,(s0)
   111da:	2781                	sext.w	a5,a5
   111dc:	1894272f          	sc.w	a4,s1,(s0)
   111e0:	2701                	sext.w	a4,a4
   111e2:	fb75                	bnez	a4,0x111d6
   111e4:	e799                	bnez	a5,0x111f2
   111e6:	60e2                	ld	ra,24(sp)
   111e8:	6442                	ld	s0,16(sp)
   111ea:	64a2                	ld	s1,8(sp)
   111ec:	6902                	ld	s2,0(sp)
   111ee:	6105                	addi	sp,sp,32
   111f0:	8082                	ret
   111f2:	4685                	li	a3,1
   111f4:	4605                	li	a2,1
   111f6:	85ca                	mv	a1,s2
   111f8:	8522                	mv	a0,s0
   111fa:	5bc020ef          	jal	ra,0x137b6
   111fe:	bfe1                	j	0x111d6
   11200:	8082                	ret
   11202:	1101                	addi	sp,sp,-32
   11204:	e426                	sd	s1,8(sp)
   11206:	44e1                	li	s1,24
   11208:	029504b3          	mul	s1,a0,s1
   1120c:	e822                	sd	s0,16(sp)
   1120e:	b1818413          	addi	s0,gp,-1256
   11212:	ec06                	sd	ra,24(sp)
   11214:	00848513          	addi	a0,s1,8
   11218:	9522                	add	a0,a0,s0
   1121a:	fa1ff0ef          	jal	ra,0x111ba
   1121e:	00940533          	add	a0,s0,s1
   11222:	691c                	ld	a5,16(a0)
   11224:	e399                	bnez	a5,0x1122a
   11226:	ed08                	sd	a0,24(a0)
   11228:	e908                	sd	a0,16(a0)
   1122a:	60e2                	ld	ra,24(sp)
   1122c:	6442                	ld	s0,16(sp)
   1122e:	64a2                	ld	s1,8(sp)
   11230:	6105                	addi	sp,sp,32
   11232:	8082                	ret
   11234:	4118                	lw	a4,0(a0)
   11236:	87aa                	mv	a5,a0
   11238:	2701                	sext.w	a4,a4
   1123a:	cb0d                	beqz	a4,0x1126c
   1123c:	0330000f          	fence	rw,rw
   11240:	00052023          	sw	zero,0(a0)
   11244:	0330000f          	fence	rw,rw
   11248:	4158                	lw	a4,4(a0)
   1124a:	2701                	sext.w	a4,a4
   1124c:	c305                	beqz	a4,0x1126c
   1124e:	06200893          	li	a7,98
   11252:	08100593          	li	a1,129
   11256:	4605                	li	a2,1
   11258:	00000073          	ecall
   1125c:	fda00713          	li	a4,-38
   11260:	00e51663          	bne	a0,a4,0x1126c
   11264:	853e                	mv	a0,a5
   11266:	4585                	li	a1,1
   11268:	00000073          	ecall
   1126c:	8082                	ret
   1126e:	6d18                	ld	a4,24(a0)
   11270:	691c                	ld	a5,16(a0)
   11272:	04f71a63          	bne	a4,a5,0x112c6
   11276:	4785                	li	a5,1
   11278:	00b795b3          	sll	a1,a5,a1
   1127c:	fff5c593          	not	a1,a1
   11280:	0005861b          	sext.w	a2,a1
   11284:	57fd                	li	a5,-1
   11286:	00f60d63          	beq	a2,a5,0x112a0
   1128a:	b1818713          	addi	a4,gp,-1256
   1128e:	100727af          	lr.w	a5,(a4)
   11292:	2781                	sext.w	a5,a5
   11294:	8ff1                	and	a5,a5,a2
   11296:	18f726af          	sc.w	a3,a5,(a4)
   1129a:	0006879b          	sext.w	a5,a3
   1129e:	f7f5                	bnez	a5,0x1128a
   112a0:	9581                	srai	a1,a1,0x20
   112a2:	57fd                	li	a5,-1
   112a4:	02f58163          	beq	a1,a5,0x112c6
   112a8:	2581                	sext.w	a1,a1
   112aa:	b1818793          	addi	a5,gp,-1256
   112ae:	00478693          	addi	a3,a5,4
   112b2:	1006a72f          	lr.w	a4,(a3)
   112b6:	2701                	sext.w	a4,a4
   112b8:	8f6d                	and	a4,a4,a1
   112ba:	8636                	mv	a2,a3
   112bc:	18e626af          	sc.w	a3,a4,(a2)
   112c0:	0006871b          	sext.w	a4,a3
   112c4:	f76d                	bnez	a4,0x112ae
   112c6:	6d18                	ld	a4,24(a0)
   112c8:	691c                	ld	a5,16(a0)
   112ca:	eb1c                	sd	a5,16(a4)
   112cc:	ef98                	sd	a4,24(a5)
   112ce:	651c                	ld	a5,8(a0)
   112d0:	0017e713          	ori	a4,a5,1
   112d4:	9bf9                	andi	a5,a5,-2
   112d6:	e518                	sd	a4,8(a0)
   112d8:	953e                	add	a0,a0,a5
   112da:	611c                	ld	a5,0(a0)
   112dc:	0017e793          	ori	a5,a5,1
   112e0:	e11c                	sd	a5,0(a0)
   112e2:	8082                	ret
   112e4:	7139                	addi	sp,sp,-64
   112e6:	ec4e                	sd	s3,24(sp)
   112e8:	f04a                	sd	s2,32(sp)
   112ea:	e852                	sd	s4,16(sp)
   112ec:	fc06                	sd	ra,56(sp)
   112ee:	f822                	sd	s0,48(sp)
   112f0:	f426                	sd	s1,40(sp)
   112f2:	892a                	mv	s2,a0
   112f4:	b1818993          	addi	s3,gp,-1256
   112f8:	4a61                	li	s4,24
   112fa:	00093483          	ld	s1,0(s2)
   112fe:	0014f793          	andi	a5,s1,1
   11302:	c399                	beqz	a5,0x11308
   11304:	4501                	li	a0,0
   11306:	a80d                	j	0x11338
   11308:	8526                	mv	a0,s1
   1130a:	e27ff0ef          	jal	ra,0x11130
   1130e:	e42a                	sd	a0,8(sp)
   11310:	ef3ff0ef          	jal	ra,0x11202
   11314:	65a2                	ld	a1,8(sp)
   11316:	00093503          	ld	a0,0(s2)
   1131a:	03458433          	mul	s0,a1,s4
   1131e:	0421                	addi	s0,s0,8
   11320:	944e                	add	s0,s0,s3
   11322:	02951363          	bne	a0,s1,0x11348
   11326:	9979                	andi	a0,a0,-2
   11328:	40a90533          	sub	a0,s2,a0
   1132c:	f43ff0ef          	jal	ra,0x1126e
   11330:	8522                	mv	a0,s0
   11332:	f03ff0ef          	jal	ra,0x11234
   11336:	4505                	li	a0,1
   11338:	70e2                	ld	ra,56(sp)
   1133a:	7442                	ld	s0,48(sp)
   1133c:	74a2                	ld	s1,40(sp)
   1133e:	7902                	ld	s2,32(sp)
   11340:	69e2                	ld	s3,24(sp)
   11342:	6a42                	ld	s4,16(sp)
   11344:	6121                	addi	sp,sp,64
   11346:	8082                	ret
   11348:	8522                	mv	a0,s0
   1134a:	eebff0ef          	jal	ra,0x11234
   1134e:	b775                	j	0x112fa
   11350:	7139                	addi	sp,sp,-64
   11352:	ec4e                	sd	s3,24(sp)
   11354:	f04a                	sd	s2,32(sp)
   11356:	e852                	sd	s4,16(sp)
   11358:	fc06                	sd	ra,56(sp)
   1135a:	f822                	sd	s0,48(sp)
   1135c:	f426                	sd	s1,40(sp)
   1135e:	892a                	mv	s2,a0
   11360:	b1818993          	addi	s3,gp,-1256
   11364:	4a61                	li	s4,24
   11366:	00893483          	ld	s1,8(s2)
   1136a:	0014f793          	andi	a5,s1,1
   1136e:	c399                	beqz	a5,0x11374
   11370:	4501                	li	a0,0
   11372:	a03d                	j	0x113a0
   11374:	8526                	mv	a0,s1
   11376:	dbbff0ef          	jal	ra,0x11130
   1137a:	e42a                	sd	a0,8(sp)
   1137c:	e87ff0ef          	jal	ra,0x11202
   11380:	65a2                	ld	a1,8(sp)
   11382:	00893783          	ld	a5,8(s2)
   11386:	03458433          	mul	s0,a1,s4
   1138a:	0421                	addi	s0,s0,8
   1138c:	944e                	add	s0,s0,s3
   1138e:	02979163          	bne	a5,s1,0x113b0
   11392:	854a                	mv	a0,s2
   11394:	edbff0ef          	jal	ra,0x1126e
   11398:	8522                	mv	a0,s0
   1139a:	e9bff0ef          	jal	ra,0x11234
   1139e:	4505                	li	a0,1
   113a0:	70e2                	ld	ra,56(sp)
   113a2:	7442                	ld	s0,48(sp)
   113a4:	74a2                	ld	s1,40(sp)
   113a6:	7902                	ld	s2,32(sp)
   113a8:	69e2                	ld	s3,24(sp)
   113aa:	6a42                	ld	s4,16(sp)
   113ac:	6121                	addi	sp,sp,64
   113ae:	8082                	ret
   113b0:	8522                	mv	a0,s0
   113b2:	e83ff0ef          	jal	ra,0x11234
   113b6:	bf45                	j	0x11366
   113b8:	1c050963          	beqz	a0,0x1158a
   113bc:	ff853783          	ld	a5,-8(a0)
   113c0:	7159                	addi	sp,sp,-112
   113c2:	f0a2                	sd	s0,96(sp)
   113c4:	f45e                	sd	s7,40(sp)
   113c6:	f486                	sd	ra,104(sp)
   113c8:	eca6                	sd	s1,88(sp)
   113ca:	e8ca                	sd	s2,80(sp)
   113cc:	e4ce                	sd	s3,72(sp)
   113ce:	e0d2                	sd	s4,64(sp)
   113d0:	fc56                	sd	s5,56(sp)
   113d2:	f85a                	sd	s6,48(sp)
   113d4:	f062                	sd	s8,32(sp)
   113d6:	ec66                	sd	s9,24(sp)
   113d8:	e86a                	sd	s10,16(sp)
   113da:	e46e                	sd	s11,8(sp)
   113dc:	0017f713          	andi	a4,a5,1
   113e0:	ff050413          	addi	s0,a0,-16
   113e4:	ffe7fb93          	andi	s7,a5,-2
   113e8:	ef05                	bnez	a4,0x11420
   113ea:	ff053783          	ld	a5,-16(a0)
   113ee:	40f40533          	sub	a0,s0,a5
   113f2:	017785b3          	add	a1,a5,s7
   113f6:	8b85                	andi	a5,a5,1
   113f8:	c781                	beqz	a5,0x11400
   113fa:	00000023          	sb	zero,0(zero) # 0x0
   113fe:	9002                	ebreak
   11400:	7406                	ld	s0,96(sp)
   11402:	70a6                	ld	ra,104(sp)
   11404:	64e6                	ld	s1,88(sp)
   11406:	6946                	ld	s2,80(sp)
   11408:	69a6                	ld	s3,72(sp)
   1140a:	6a06                	ld	s4,64(sp)
   1140c:	7ae2                	ld	s5,56(sp)
   1140e:	7b42                	ld	s6,48(sp)
   11410:	7ba2                	ld	s7,40(sp)
   11412:	7c02                	ld	s8,32(sp)
   11414:	6ce2                	ld	s9,24(sp)
   11416:	6d42                	ld	s10,16(sp)
   11418:	6da2                	ld	s11,8(sp)
   1141a:	6165                	addi	sp,sp,112
   1141c:	7940006f          	j	0x11bb0
   11420:	01740933          	add	s2,s0,s7
   11424:	00093703          	ld	a4,0(s2)
   11428:	00e78563          	beq	a5,a4,0x11432
   1142c:	00000023          	sb	zero,0(zero) # 0x0
   11430:	9002                	ebreak
   11432:	b1818493          	addi	s1,gp,-1256
   11436:	8a5e                	mv	s4,s7
   11438:	4a81                	li	s5,0
   1143a:	60848c13          	addi	s8,s1,1544
   1143e:	4d61                	li	s10,24
   11440:	00028cb7          	lui	s9,0x28
   11444:	601c                	ld	a5,0(s0)
   11446:	00893703          	ld	a4,8(s2)
   1144a:	8ff9                	and	a5,a5,a4
   1144c:	8b85                	andi	a5,a5,1
   1144e:	c3a1                	beqz	a5,0x1148e
   11450:	001a6793          	ori	a5,s4,1
   11454:	e41c                	sd	a5,8(s0)
   11456:	00f93023          	sd	a5,0(s2)
   1145a:	8552                	mv	a0,s4
   1145c:	cd5ff0ef          	jal	ra,0x11130
   11460:	8b2a                	mv	s6,a0
   11462:	03ab0db3          	mul	s11,s6,s10
   11466:	d9dff0ef          	jal	ra,0x11202
   1146a:	8562                	mv	a0,s8
   1146c:	d4fff0ef          	jal	ra,0x111ba
   11470:	601c                	ld	a5,0(s0)
   11472:	00893703          	ld	a4,8(s2)
   11476:	8ff9                	and	a5,a5,a4
   11478:	8b85                	andi	a5,a5,1
   1147a:	008d8993          	addi	s3,s11,8
   1147e:	99a6                	add	s3,s3,s1
   11480:	ebb9                	bnez	a5,0x114d6
   11482:	8562                	mv	a0,s8
   11484:	db1ff0ef          	jal	ra,0x11234
   11488:	854e                	mv	a0,s3
   1148a:	dabff0ef          	jal	ra,0x11234
   1148e:	8522                	mv	a0,s0
   11490:	e55ff0ef          	jal	ra,0x112e4
   11494:	cd19                	beqz	a0,0x114b2
   11496:	601c                	ld	a5,0(s0)
   11498:	9bf9                	andi	a5,a5,-2
   1149a:	8c1d                	sub	s0,s0,a5
   1149c:	641c                	ld	a5,8(s0)
   1149e:	9bf9                	andi	a5,a5,-2
   114a0:	01778733          	add	a4,a5,s7
   114a4:	9a3e                	add	s4,s4,a5
   114a6:	00ecf663          	bgeu	s9,a4,0x114b2
   114aa:	8f3d                	xor	a4,a4,a5
   114ac:	00e7f363          	bgeu	a5,a4,0x114b2
   114b0:	4a85                	li	s5,1
   114b2:	854a                	mv	a0,s2
   114b4:	e9dff0ef          	jal	ra,0x11350
   114b8:	d551                	beqz	a0,0x11444
   114ba:	00893783          	ld	a5,8(s2)
   114be:	9bf9                	andi	a5,a5,-2
   114c0:	01778733          	add	a4,a5,s7
   114c4:	9a3e                	add	s4,s4,a5
   114c6:	00ecf663          	bgeu	s9,a4,0x114d2
   114ca:	8f3d                	xor	a4,a4,a5
   114cc:	00e7f363          	bgeu	a5,a4,0x114d2
   114d0:	4a85                	li	s5,1
   114d2:	993e                	add	s2,s2,a5
   114d4:	bf85                	j	0x11444
   114d6:	609c                	ld	a5,0(s1)
   114d8:	0167d7b3          	srl	a5,a5,s6
   114dc:	8b85                	andi	a5,a5,1
   114de:	c7bd                	beqz	a5,0x1154c
   114e0:	01443423          	sd	s4,8(s0)
   114e4:	12018513          	addi	a0,gp,288
   114e8:	01493023          	sd	s4,0(s2)
   114ec:	d49ff0ef          	jal	ra,0x11234
   114f0:	4561                	li	a0,24
   114f2:	02ab0533          	mul	a0,s6,a0
   114f6:	9da6                	add	s11,s11,s1
   114f8:	01b43823          	sd	s11,16(s0)
   114fc:	94aa                	add	s1,s1,a0
   114fe:	6c9c                	ld	a5,24(s1)
   11500:	ec1c                	sd	a5,24(s0)
   11502:	008dbc23          	sd	s0,24(s11)
   11506:	6c1c                	ld	a5,24(s0)
   11508:	eb80                	sd	s0,16(a5)
   1150a:	020a8063          	beqz	s5,0x1152a
   1150e:	7401b503          	ld	a0,1856(gp)
   11512:	1901                	addi	s2,s2,-32
   11514:	4611                	li	a2,4
   11516:	40a005b3          	neg	a1,a0
   1151a:	057d                	addi	a0,a0,31
   1151c:	9522                	add	a0,a0,s0
   1151e:	8d6d                	and	a0,a0,a1
   11520:	00b975b3          	and	a1,s2,a1
   11524:	8d89                	sub	a1,a1,a0
   11526:	59a000ef          	jal	ra,0x11ac0
   1152a:	7406                	ld	s0,96(sp)
   1152c:	70a6                	ld	ra,104(sp)
   1152e:	64e6                	ld	s1,88(sp)
   11530:	6946                	ld	s2,80(sp)
   11532:	6a06                	ld	s4,64(sp)
   11534:	7ae2                	ld	s5,56(sp)
   11536:	7b42                	ld	s6,48(sp)
   11538:	7ba2                	ld	s7,40(sp)
   1153a:	7c02                	ld	s8,32(sp)
   1153c:	6ce2                	ld	s9,24(sp)
   1153e:	6d42                	ld	s10,16(sp)
   11540:	6da2                	ld	s11,8(sp)
   11542:	854e                	mv	a0,s3
   11544:	69a6                	ld	s3,72(sp)
   11546:	6165                	addi	sp,sp,112
   11548:	cedff06f          	j	0x11234
   1154c:	4785                	li	a5,1
   1154e:	016797b3          	sll	a5,a5,s6
   11552:	0007859b          	sext.w	a1,a5
   11556:	e185                	bnez	a1,0x11576
   11558:	9781                	srai	a5,a5,0x20
   1155a:	d3d9                	beqz	a5,0x114e0
   1155c:	2781                	sext.w	a5,a5
   1155e:	00448693          	addi	a3,s1,4
   11562:	1006a72f          	lr.w	a4,(a3)
   11566:	2701                	sext.w	a4,a4
   11568:	8f5d                	or	a4,a4,a5
   1156a:	18e6a62f          	sc.w	a2,a4,(a3)
   1156e:	0006071b          	sext.w	a4,a2
   11572:	f775                	bnez	a4,0x1155e
   11574:	b7b5                	j	0x114e0
   11576:	1004a72f          	lr.w	a4,(s1)
   1157a:	2701                	sext.w	a4,a4
   1157c:	8f4d                	or	a4,a4,a1
   1157e:	18e4a62f          	sc.w	a2,a4,(s1)
   11582:	0006071b          	sext.w	a4,a2
   11586:	fb65                	bnez	a4,0x11576
   11588:	bfc1                	j	0x11558
   1158a:	8082                	ret
   1158c:	651c                	ld	a5,8(a0)
   1158e:	9bf9                	andi	a5,a5,-2
   11590:	ff078713          	addi	a4,a5,-16
   11594:	02e5f363          	bgeu	a1,a4,0x115ba
   11598:	00b50733          	add	a4,a0,a1
   1159c:	0015e693          	ori	a3,a1,1
   115a0:	40b785b3          	sub	a1,a5,a1
   115a4:	0015e593          	ori	a1,a1,1
   115a8:	e314                	sd	a3,0(a4)
   115aa:	e70c                	sd	a1,8(a4)
   115ac:	97aa                	add	a5,a5,a0
   115ae:	e38c                	sd	a1,0(a5)
   115b0:	e514                	sd	a3,8(a0)
   115b2:	01070513          	addi	a0,a4,16
   115b6:	e03ff06f          	j	0x113b8
   115ba:	8082                	ret
   115bc:	7159                	addi	sp,sp,-112
   115be:	e42a                	sd	a0,8(sp)
   115c0:	0028                	addi	a0,sp,8
   115c2:	f486                	sd	ra,104(sp)
   115c4:	f0a2                	sd	s0,96(sp)
   115c6:	eca6                	sd	s1,88(sp)
   115c8:	e8ca                	sd	s2,80(sp)
   115ca:	e4ce                	sd	s3,72(sp)
   115cc:	e0d2                	sd	s4,64(sp)
   115ce:	fc56                	sd	s5,56(sp)
   115d0:	f85a                	sd	s6,48(sp)
   115d2:	f45e                	sd	s7,40(sp)
   115d4:	f062                	sd	s8,32(sp)
   115d6:	ba7ff0ef          	jal	ra,0x1117c
   115da:	02055063          	bgez	a0,0x115fa
   115de:	4401                	li	s0,0
   115e0:	8522                	mv	a0,s0
   115e2:	70a6                	ld	ra,104(sp)
   115e4:	7406                	ld	s0,96(sp)
   115e6:	64e6                	ld	s1,88(sp)
   115e8:	6946                	ld	s2,80(sp)
   115ea:	69a6                	ld	s3,72(sp)
   115ec:	6a06                	ld	s4,64(sp)
   115ee:	7ae2                	ld	s5,56(sp)
   115f0:	7b42                	ld	s6,48(sp)
   115f2:	7ba2                	ld	s7,40(sp)
   115f4:	7c02                	ld	s8,32(sp)
   115f6:	6165                	addi	sp,sp,112
   115f8:	8082                	ret
   115fa:	67a2                	ld	a5,8(sp)
   115fc:	00038737          	lui	a4,0x38
   11600:	02f77d63          	bgeu	a4,a5,0x1163a
   11604:	7401b703          	ld	a4,1856(gp)
   11608:	02200693          	li	a3,34
   1160c:	460d                	li	a2,3
   1160e:	00e78433          	add	s0,a5,a4
   11612:	043d                	addi	s0,s0,15
   11614:	40e00733          	neg	a4,a4
   11618:	8c79                	and	s0,s0,a4
   1161a:	4781                	li	a5,0
   1161c:	577d                	li	a4,-1
   1161e:	85a2                	mv	a1,s0
   11620:	4501                	li	a0,0
   11622:	4b8000ef          	jal	ra,0x11ada
   11626:	57fd                	li	a5,-1
   11628:	faf50be3          	beq	a0,a5,0x115de
   1162c:	1441                	addi	s0,s0,-16
   1162e:	47c1                	li	a5,16
   11630:	ed00                	sd	s0,24(a0)
   11632:	e91c                	sd	a5,16(a0)
   11634:	02050413          	addi	s0,a0,32
   11638:	b765                	j	0x115e0
   1163a:	8395                	srli	a5,a5,0x5
   1163c:	fff78493          	addi	s1,a5,-1
   11640:	02000713          	li	a4,32
   11644:	04976863          	bltu	a4,s1,0x11694
   11648:	2481                	sext.w	s1,s1
   1164a:	000197b7          	lui	a5,0x19
   1164e:	1207bb03          	ld	s6,288(a5) # 0x19120
   11652:	59fd                	li	s3,-1
   11654:	6a5d                	lui	s4,0x17
   11656:	009999b3          	sll	s3,s3,s1
   1165a:	b1818c13          	addi	s8,gp,-1256
   1165e:	7a8a0a13          	addi	s4,s4,1960 # 0x177a8
   11662:	4ae1                	li	s5,24
   11664:	000c3783          	ld	a5,0(s8)
   11668:	0137f733          	and	a4,a5,s3
   1166c:	e769                	bnez	a4,0x11736
   1166e:	67a2                	ld	a5,8(sp)
   11670:	8c818513          	addi	a0,gp,-1848
   11674:	02078793          	addi	a5,a5,32
   11678:	ec3e                	sd	a5,24(sp)
   1167a:	b41ff0ef          	jal	ra,0x111ba
   1167e:	0828                	addi	a0,sp,24
   11680:	2e3020ef          	jal	ra,0x14162
   11684:	842a                	mv	s0,a0
   11686:	8526                	mv	a0,s1
   11688:	e815                	bnez	s0,0x116bc
   1168a:	8c818513          	addi	a0,gp,-1848
   1168e:	ba7ff0ef          	jal	ra,0x11234
   11692:	b7b9                	j	0x115e0
   11694:	675d                	lui	a4,0x17
   11696:	17f9                	addi	a5,a5,-2
   11698:	1ff00693          	li	a3,511
   1169c:	7a870713          	addi	a4,a4,1960 # 0x177a8
   116a0:	00f6e863          	bltu	a3,a5,0x116b0
   116a4:	838d                	srli	a5,a5,0x3
   116a6:	97ba                	add	a5,a5,a4
   116a8:	ffc7c483          	lbu	s1,-4(a5)
   116ac:	0485                	addi	s1,s1,1
   116ae:	bf71                	j	0x1164a
   116b0:	839d                	srli	a5,a5,0x7
   116b2:	97ba                	add	a5,a5,a4
   116b4:	ffc7c483          	lbu	s1,-4(a5)
   116b8:	04c5                	addi	s1,s1,17
   116ba:	bf41                	j	0x1164a
   116bc:	8c01b483          	ld	s1,-1856(gp)
   116c0:	873e                	mv	a4,a5
   116c2:	00940963          	beq	s0,s1,0x116d4
   116c6:	67e2                	ld	a5,24(sp)
   116c8:	02040493          	addi	s1,s0,32
   116cc:	1781                	addi	a5,a5,-32
   116ce:	ec3e                	sd	a5,24(sp)
   116d0:	4785                	li	a5,1
   116d2:	e81c                	sd	a5,16(s0)
   116d4:	67e2                	ld	a5,24(sp)
   116d6:	ff048413          	addi	s0,s1,-16
   116da:	8c818513          	addi	a0,gp,-1848
   116de:	00f486b3          	add	a3,s1,a5
   116e2:	8cd1b023          	sd	a3,-1856(gp)
   116e6:	0017e793          	ori	a5,a5,1
   116ea:	4705                	li	a4,1
   116ec:	fef6b823          	sd	a5,-16(a3) # 0x1fff0
   116f0:	fee6bc23          	sd	a4,-8(a3)
   116f4:	fef4bc23          	sd	a5,-8(s1)
   116f8:	b3dff0ef          	jal	ra,0x11234
   116fc:	ee0401e3          	beqz	s0,0x115de
   11700:	8522                	mv	a0,s0
   11702:	be3ff0ef          	jal	ra,0x112e4
   11706:	c115                	beqz	a0,0x1172a
   11708:	ff04b783          	ld	a5,-16(s1)
   1170c:	ff84b683          	ld	a3,-8(s1)
   11710:	9bf9                	andi	a5,a5,-2
   11712:	40f407b3          	sub	a5,s0,a5
   11716:	6798                	ld	a4,8(a5)
   11718:	9b79                	andi	a4,a4,-2
   1171a:	9736                	add	a4,a4,a3
   1171c:	e798                	sd	a4,8(a5)
   1171e:	ff84b503          	ld	a0,-8(s1)
   11722:	9979                	andi	a0,a0,-2
   11724:	942a                	add	s0,s0,a0
   11726:	e018                	sd	a4,0(s0)
   11728:	843e                	mv	s0,a5
   1172a:	65a2                	ld	a1,8(sp)
   1172c:	8522                	mv	a0,s0
   1172e:	0441                	addi	s0,s0,16
   11730:	e5dff0ef          	jal	ra,0x1158c
   11734:	b575                	j	0x115e0
   11736:	40e007b3          	neg	a5,a4
   1173a:	8ff9                	and	a5,a5,a4
   1173c:	036787b3          	mul	a5,a5,s6
   11740:	93e9                	srli	a5,a5,0x3a
   11742:	97d2                	add	a5,a5,s4
   11744:	0407cb83          	lbu	s7,64(a5)
   11748:	000b891b          	sext.w	s2,s7
   1174c:	854a                	mv	a0,s2
   1174e:	ab5ff0ef          	jal	ra,0x11202
   11752:	035907b3          	mul	a5,s2,s5
   11756:	97e2                	add	a5,a5,s8
   11758:	6b80                	ld	s0,16(a5)
   1175a:	035b87b3          	mul	a5,s7,s5
   1175e:	00878b93          	addi	s7,a5,8
   11762:	97e2                	add	a5,a5,s8
   11764:	9be2                	add	s7,s7,s8
   11766:	06f40c63          	beq	s0,a5,0x117de
   1176a:	02700793          	li	a5,39
   1176e:	0327d263          	bge	a5,s2,0x11792
   11772:	2489                	addiw	s1,s1,2
   11774:	69a2                	ld	s3,8(sp)
   11776:	0324c363          	blt	s1,s2,0x1179c
   1177a:	03f00793          	li	a5,63
   1177e:	00f91a63          	bne	s2,a5,0x11792
   11782:	6404                	ld	s1,8(s0)
   11784:	000387b7          	lui	a5,0x38
   11788:	98f9                	andi	s1,s1,-2
   1178a:	41348733          	sub	a4,s1,s3
   1178e:	00e7e963          	bltu	a5,a4,0x117a0
   11792:	85ca                	mv	a1,s2
   11794:	8522                	mv	a0,s0
   11796:	ad9ff0ef          	jal	ra,0x1126e
   1179a:	a835                	j	0x117d6
   1179c:	6404                	ld	s1,8(s0)
   1179e:	98f9                	andi	s1,s1,-2
   117a0:	41348a33          	sub	s4,s1,s3
   117a4:	8552                	mv	a0,s4
   117a6:	98bff0ef          	jal	ra,0x11130
   117aa:	fea914e3          	bne	s2,a0,0x11792
   117ae:	6c18                	ld	a4,24(s0)
   117b0:	6814                	ld	a3,16(s0)
   117b2:	013407b3          	add	a5,s0,s3
   117b6:	ef98                	sd	a4,24(a5)
   117b8:	eb94                	sd	a3,16(a5)
   117ba:	eb1c                	sd	a5,16(a4)
   117bc:	6b98                	ld	a4,16(a5)
   117be:	0019e993          	ori	s3,s3,1
   117c2:	94a2                	add	s1,s1,s0
   117c4:	ef1c                	sd	a5,24(a4)
   117c6:	0137b023          	sd	s3,0(a5) # 0x38000
   117ca:	0147b423          	sd	s4,8(a5)
   117ce:	0144b023          	sd	s4,0(s1)
   117d2:	01343423          	sd	s3,8(s0)
   117d6:	855e                	mv	a0,s7
   117d8:	a5dff0ef          	jal	ra,0x11234
   117dc:	b7b9                	j	0x1172a
   117de:	855e                	mv	a0,s7
   117e0:	a55ff0ef          	jal	ra,0x11234
   117e4:	b541                	j	0x11664
   117e6:	1141                	addi	sp,sp,-16
   117e8:	e022                	sd	s0,0(sp)
   117ea:	e406                	sd	ra,8(sp)
   117ec:	842a                	mv	s0,a0
   117ee:	dcfff0ef          	jal	ra,0x115bc
   117f2:	c919                	beqz	a0,0x11808
   117f4:	ff853783          	ld	a5,-8(a0)
   117f8:	8b85                	andi	a5,a5,1
   117fa:	c799                	beqz	a5,0x11808
   117fc:	041d                	addi	s0,s0,7
   117fe:	9861                	andi	s0,s0,-8
   11800:	942a                	add	s0,s0,a0
   11802:	87aa                	mv	a5,a0
   11804:	00879663          	bne	a5,s0,0x11810
   11808:	60a2                	ld	ra,8(sp)
   1180a:	6402                	ld	s0,0(sp)
   1180c:	0141                	addi	sp,sp,16
   1180e:	8082                	ret
   11810:	6398                	ld	a4,0(a5)
   11812:	c319                	beqz	a4,0x11818
   11814:	0007b023          	sd	zero,0(a5)
   11818:	07a1                	addi	a5,a5,8
   1181a:	b7ed                	j	0x11804
   1181c:	711d                	addi	sp,sp,-96
   1181e:	ec86                	sd	ra,88(sp)
   11820:	e8a2                	sd	s0,80(sp)
   11822:	e4a6                	sd	s1,72(sp)
   11824:	e0ca                	sd	s2,64(sp)
   11826:	fc4e                	sd	s3,56(sp)
   11828:	f852                	sd	s4,48(sp)
   1182a:	f456                	sd	s5,40(sp)
   1182c:	f05a                	sd	s6,32(sp)
   1182e:	ec5e                	sd	s7,24(sp)
   11830:	e42e                	sd	a1,8(sp)
   11832:	e10d                	bnez	a0,0x11854
   11834:	852e                	mv	a0,a1
   11836:	d87ff0ef          	jal	ra,0x115bc
   1183a:	842a                	mv	s0,a0
   1183c:	8522                	mv	a0,s0
   1183e:	60e6                	ld	ra,88(sp)
   11840:	6446                	ld	s0,80(sp)
   11842:	64a6                	ld	s1,72(sp)
   11844:	6906                	ld	s2,64(sp)
   11846:	79e2                	ld	s3,56(sp)
   11848:	7a42                	ld	s4,48(sp)
   1184a:	7aa2                	ld	s5,40(sp)
   1184c:	7b02                	ld	s6,32(sp)
   1184e:	6be2                	ld	s7,24(sp)
   11850:	6125                	addi	sp,sp,96
   11852:	8082                	ret
   11854:	84aa                	mv	s1,a0
   11856:	0028                	addi	a0,sp,8
   11858:	925ff0ef          	jal	ra,0x1117c
   1185c:	0e054563          	bltz	a0,0x11946
   11860:	ff84b783          	ld	a5,-8(s1)
   11864:	ff048b13          	addi	s6,s1,-16
   11868:	0017f713          	andi	a4,a5,1
   1186c:	ffe7f993          	andi	s3,a5,-2
   11870:	e349                	bnez	a4,0x118f2
   11872:	ff04ba03          	ld	s4,-16(s1)
   11876:	6522                	ld	a0,8(sp)
   11878:	001a7793          	andi	a5,s4,1
   1187c:	014985b3          	add	a1,s3,s4
   11880:	01450bb3          	add	s7,a0,s4
   11884:	c781                	beqz	a5,0x1188c
   11886:	00000023          	sb	zero,0(zero) # 0x0
   1188a:	9002                	ebreak
   1188c:	70818713          	addi	a4,gp,1800
   11890:	7f18                	ld	a4,56(a4)
   11892:	70818a93          	addi	s5,gp,1800
   11896:	02ebf163          	bgeu	s7,a4,0x118b8
   1189a:	e02e                	sd	a1,0(sp)
   1189c:	d21ff0ef          	jal	ra,0x115bc
   118a0:	842a                	mv	s0,a0
   118a2:	6582                	ld	a1,0(sp)
   118a4:	c911                	beqz	a0,0x118b8
   118a6:	6622                	ld	a2,8(sp)
   118a8:	1641                	addi	a2,a2,-16
   118aa:	85a6                	mv	a1,s1
   118ac:	11f010ef          	jal	ra,0x131ca
   118b0:	8526                	mv	a0,s1
   118b2:	b07ff0ef          	jal	ra,0x113b8
   118b6:	b759                	j	0x1183c
   118b8:	038ab783          	ld	a5,56(s5)
   118bc:	8426                	mv	s0,s1
   118be:	fff78913          	addi	s2,a5,-1
   118c2:	995e                	add	s2,s2,s7
   118c4:	40f007b3          	neg	a5,a5
   118c8:	0127f933          	and	s2,a5,s2
   118cc:	f72588e3          	beq	a1,s2,0x1183c
   118d0:	4685                	li	a3,1
   118d2:	864a                	mv	a2,s2
   118d4:	414b0533          	sub	a0,s6,s4
   118d8:	282000ef          	jal	ra,0x11b5a
   118dc:	57fd                	li	a5,-1
   118de:	04f50a63          	beq	a0,a5,0x11932
   118e2:	01450433          	add	s0,a0,s4
   118e6:	41490933          	sub	s2,s2,s4
   118ea:	01243423          	sd	s2,8(s0)
   118ee:	0441                	addi	s0,s0,16
   118f0:	b7b1                	j	0x1183c
   118f2:	013b0433          	add	s0,s6,s3
   118f6:	6018                	ld	a4,0(s0)
   118f8:	f8e797e3          	bne	a5,a4,0x11886
   118fc:	6722                	ld	a4,8(sp)
   118fe:	87ce                	mv	a5,s3
   11900:	00e9fc63          	bgeu	s3,a4,0x11918
   11904:	8522                	mv	a0,s0
   11906:	a4bff0ef          	jal	ra,0x11350
   1190a:	87ce                	mv	a5,s3
   1190c:	c511                	beqz	a0,0x11918
   1190e:	6418                	ld	a4,8(s0)
   11910:	9b79                	andi	a4,a4,-2
   11912:	013707b3          	add	a5,a4,s3
   11916:	943a                	add	s0,s0,a4
   11918:	0017e713          	ori	a4,a5,1
   1191c:	65a2                	ld	a1,8(sp)
   1191e:	fee4bc23          	sd	a4,-8(s1)
   11922:	e018                	sd	a4,0(s0)
   11924:	00b7e763          	bltu	a5,a1,0x11932
   11928:	855a                	mv	a0,s6
   1192a:	c63ff0ef          	jal	ra,0x1158c
   1192e:	8426                	mv	s0,s1
   11930:	b731                	j	0x1183c
   11932:	6522                	ld	a0,8(sp)
   11934:	1541                	addi	a0,a0,-16
   11936:	c87ff0ef          	jal	ra,0x115bc
   1193a:	842a                	mv	s0,a0
   1193c:	f00500e3          	beqz	a0,0x1183c
   11940:	ff098613          	addi	a2,s3,-16
   11944:	b79d                	j	0x118aa
   11946:	4401                	li	s0,0
   11948:	bdd5                	j	0x1183c
   1194a:	22b50553          	fsgnj.d	fa0,fa0,fa1
   1194e:	8082                	ret
   11950:	20b50553          	fsgnj.s	fa0,fa0,fa1
   11954:	8082                	ret
   11956:	3ff00713          	li	a4,1023
   1195a:	02a75d63          	bge	a4,a0,0x11994
   1195e:	000197b7          	lui	a5,0x19
   11962:	1087b787          	fld	fa5,264(a5) # 0x19108
   11966:	c015079b          	addiw	a5,a0,-1023
   1196a:	12f57553          	fmul.d	fa0,fa0,fa5
   1196e:	00f75b63          	bge	a4,a5,0x11984
   11972:	8025069b          	addiw	a3,a0,-2046
   11976:	12f57553          	fmul.d	fa0,fa0,fa5
   1197a:	87b6                	mv	a5,a3
   1197c:	00d75463          	bge	a4,a3,0x11984
   11980:	3ff00793          	li	a5,1023
   11984:	3ff7879b          	addiw	a5,a5,1023
   11988:	17d2                	slli	a5,a5,0x34
   1198a:	f20787d3          	fmv.d.x	fa5,a5
   1198e:	12f57553          	fmul.d	fa0,fa0,fa5
   11992:	8082                	ret
   11994:	c0200713          	li	a4,-1022
   11998:	87aa                	mv	a5,a0
   1199a:	fee555e3          	bge	a0,a4,0x11984
   1199e:	000197b7          	lui	a5,0x19
   119a2:	1287b787          	fld	fa5,296(a5) # 0x19128
   119a6:	3c95079b          	addiw	a5,a0,969
   119aa:	12f57553          	fmul.d	fa0,fa0,fa5
   119ae:	fce7dbe3          	bge	a5,a4,0x11984
   119b2:	7925069b          	addiw	a3,a0,1938
   119b6:	12f57553          	fmul.d	fa0,fa0,fa5
   119ba:	87b6                	mv	a5,a3
   119bc:	fce6d4e3          	bge	a3,a4,0x11984
   119c0:	c0200793          	li	a5,-1022
   119c4:	b7c1                	j	0x11984
   119c6:	7179                	addi	sp,sp,-48
   119c8:	ec26                	sd	s1,24(sp)
   119ca:	e84a                	sd	s2,16(sp)
   119cc:	84ae                	mv	s1,a1
   119ce:	892a                	mv	s2,a0
   119d0:	f406                	sd	ra,40(sp)
   119d2:	f022                	sd	s0,32(sp)
   119d4:	10500893          	li	a7,261
   119d8:	4501                	li	a0,0
   119da:	85ca                	mv	a1,s2
   119dc:	4601                	li	a2,0
   119de:	86a6                	mv	a3,s1
   119e0:	00000073          	ecall
   119e4:	c18ff0ef          	jal	ra,0x10dfc
   119e8:	0005041b          	sext.w	s0,a0
   119ec:	e809                	bnez	s0,0x119fe
   119ee:	4401                	li	s0,0
   119f0:	8522                	mv	a0,s0
   119f2:	70a2                	ld	ra,40(sp)
   119f4:	7402                	ld	s0,32(sp)
   119f6:	64e2                	ld	s1,24(sp)
   119f8:	6942                	ld	s2,16(sp)
   119fa:	6145                	addi	sp,sp,48
   119fc:	8082                	ret
   119fe:	af8ff0ef          	jal	ra,0x10cf6
   11a02:	4118                	lw	a4,0(a0)
   11a04:	02600793          	li	a5,38
   11a08:	fef714e3          	bne	a4,a5,0x119f0
   11a0c:	0a300893          	li	a7,163
   11a10:	854a                	mv	a0,s2
   11a12:	858a                	mv	a1,sp
   11a14:	00000073          	ecall
   11a18:	be4ff0ef          	jal	ra,0x10dfc
   11a1c:	547d                	li	s0,-1
   11a1e:	fc0549e3          	bltz	a0,0x119f0
   11a22:	6782                	ld	a5,0(sp)
   11a24:	e09c                	sd	a5,0(s1)
   11a26:	67a2                	ld	a5,8(sp)
   11a28:	e49c                	sd	a5,8(s1)
   11a2a:	b7d1                	j	0x119ee
   11a2c:	872a                	mv	a4,a0
   11a2e:	87ae                	mv	a5,a1
   11a30:	10500893          	li	a7,261
   11a34:	4501                	li	a0,0
   11a36:	85ba                	mv	a1,a4
   11a38:	863e                	mv	a2,a5
   11a3a:	4681                	li	a3,0
   11a3c:	00000073          	ecall
   11a40:	fda00693          	li	a3,-38
   11a44:	2501                	sext.w	a0,a0
   11a46:	02d51063          	bne	a0,a3,0x11a66
   11a4a:	6394                	ld	a3,0(a5)
   11a4c:	679c                	ld	a5,8(a5)
   11a4e:	1141                	addi	sp,sp,-16
   11a50:	e036                	sd	a3,0(sp)
   11a52:	e43e                	sd	a5,8(sp)
   11a54:	0a400893          	li	a7,164
   11a58:	853a                	mv	a0,a4
   11a5a:	858a                	mv	a1,sp
   11a5c:	00000073          	ecall
   11a60:	2501                	sext.w	a0,a0
   11a62:	0141                	addi	sp,sp,16
   11a64:	8082                	ret
   11a66:	8082                	ret
   11a68:	455c                	lw	a5,12(a0)
   11a6a:	02f04163          	bgtz	a5,0x11a8c
   11a6e:	1141                	addi	sp,sp,-16
   11a70:	e022                	sd	s0,0(sp)
   11a72:	610c                	ld	a1,0(a0)
   11a74:	842a                	mv	s0,a0
   11a76:	4508                	lw	a0,8(a0)
   11a78:	e406                	sd	ra,8(sp)
   11a7a:	fb3ff0ef          	jal	ra,0x11a2c
   11a7e:	40a0053b          	negw	a0,a0
   11a82:	c448                	sw	a0,12(s0)
   11a84:	60a2                	ld	ra,8(sp)
   11a86:	6402                	ld	s0,0(sp)
   11a88:	0141                	addi	sp,sp,16
   11a8a:	8082                	ret
   11a8c:	8082                	ret
   11a8e:	1101                	addi	sp,sp,-32
   11a90:	c42a                	sw	a0,8(sp)
   11a92:	00012537          	lui	a0,0x12
   11a96:	e02e                	sd	a1,0(sp)
   11a98:	57fd                	li	a5,-1
   11a9a:	a6850513          	addi	a0,a0,-1432 # 0x11a68
   11a9e:	858a                	mv	a1,sp
   11aa0:	ec06                	sd	ra,24(sp)
   11aa2:	c63e                	sw	a5,12(sp)
   11aa4:	647010ef          	jal	ra,0x138ea
   11aa8:	4532                	lw	a0,12(sp)
   11aaa:	c901                	beqz	a0,0x11aba
   11aac:	00a05663          	blez	a0,0x11ab8
   11ab0:	a46ff0ef          	jal	ra,0x10cf6
   11ab4:	47b2                	lw	a5,12(sp)
   11ab6:	c11c                	sw	a5,0(a0)
   11ab8:	557d                	li	a0,-1
   11aba:	60e2                	ld	ra,24(sp)
   11abc:	6105                	addi	sp,sp,32
   11abe:	8082                	ret
   11ac0:	1141                	addi	sp,sp,-16
   11ac2:	e406                	sd	ra,8(sp)
   11ac4:	0e900893          	li	a7,233
   11ac8:	00000073          	ecall
   11acc:	b30ff0ef          	jal	ra,0x10dfc
   11ad0:	60a2                	ld	ra,8(sp)
   11ad2:	2501                	sext.w	a0,a0
   11ad4:	0141                	addi	sp,sp,16
   11ad6:	8082                	ret
   11ad8:	8082                	ret
   11ada:	7139                	addi	sp,sp,-64
   11adc:	f822                	sd	s0,48(sp)
   11ade:	fc06                	sd	ra,56(sp)
   11ae0:	8436                	mv	s0,a3
   11ae2:	f426                	sd	s1,40(sp)
   11ae4:	03479693          	slli	a3,a5,0x34
   11ae8:	ca99                	beqz	a3,0x11afe
   11aea:	a0cff0ef          	jal	ra,0x10cf6
   11aee:	47d9                	li	a5,22
   11af0:	70e2                	ld	ra,56(sp)
   11af2:	7442                	ld	s0,48(sp)
   11af4:	c11c                	sw	a5,0(a0)
   11af6:	74a2                	ld	s1,40(sp)
   11af8:	557d                	li	a0,-1
   11afa:	6121                	addi	sp,sp,64
   11afc:	8082                	ret
   11afe:	56f5                	li	a3,-3
   11b00:	8285                	srli	a3,a3,0x1
   11b02:	00b6f663          	bgeu	a3,a1,0x11b0e
   11b06:	9f0ff0ef          	jal	ra,0x10cf6
   11b0a:	47b1                	li	a5,12
   11b0c:	b7d5                	j	0x11af0
   11b0e:	01047693          	andi	a3,s0,16
   11b12:	84aa                	mv	s1,a0
   11b14:	ca99                	beqz	a3,0x11b2a
   11b16:	ec3e                	sd	a5,24(sp)
   11b18:	e83a                	sd	a4,16(sp)
   11b1a:	e432                	sd	a2,8(sp)
   11b1c:	e02e                	sd	a1,0(sp)
   11b1e:	fbbff0ef          	jal	ra,0x11ad8
   11b22:	67e2                	ld	a5,24(sp)
   11b24:	6742                	ld	a4,16(sp)
   11b26:	6622                	ld	a2,8(sp)
   11b28:	6582                	ld	a1,0(sp)
   11b2a:	0de00893          	li	a7,222
   11b2e:	8526                	mv	a0,s1
   11b30:	86a2                	mv	a3,s0
   11b32:	00000073          	ecall
   11b36:	57fd                	li	a5,-1
   11b38:	00f51a63          	bne	a0,a5,0x11b4c
   11b3c:	e881                	bnez	s1,0x11b4c
   11b3e:	03047413          	andi	s0,s0,48
   11b42:	02000793          	li	a5,32
   11b46:	00f41363          	bne	s0,a5,0x11b4c
   11b4a:	5551                	li	a0,-12
   11b4c:	7442                	ld	s0,48(sp)
   11b4e:	70e2                	ld	ra,56(sp)
   11b50:	74a2                	ld	s1,40(sp)
   11b52:	6121                	addi	sp,sp,64
   11b54:	aa8ff06f          	j	0x10dfc
   11b58:	8082                	ret
   11b5a:	711d                	addi	sp,sp,-96
   11b5c:	e4be                	sd	a5,72(sp)
   11b5e:	57f5                	li	a5,-3
   11b60:	fc06                	sd	ra,56(sp)
   11b62:	e0ba                	sd	a4,64(sp)
   11b64:	e8c2                	sd	a6,80(sp)
   11b66:	ecc6                	sd	a7,88(sp)
   11b68:	8385                	srli	a5,a5,0x1
   11b6a:	00c7fa63          	bgeu	a5,a2,0x11b7e
   11b6e:	988ff0ef          	jal	ra,0x10cf6
   11b72:	47b1                	li	a5,12
   11b74:	c11c                	sw	a5,0(a0)
   11b76:	557d                	li	a0,-1
   11b78:	70e2                	ld	ra,56(sp)
   11b7a:	6125                	addi	sp,sp,96
   11b7c:	8082                	ret
   11b7e:	0026f793          	andi	a5,a3,2
   11b82:	4701                	li	a4,0
   11b84:	cf91                	beqz	a5,0x11ba0
   11b86:	ec36                	sd	a3,24(sp)
   11b88:	e832                	sd	a2,16(sp)
   11b8a:	e42e                	sd	a1,8(sp)
   11b8c:	e02a                	sd	a0,0(sp)
   11b8e:	f4bff0ef          	jal	ra,0x11ad8
   11b92:	6706                	ld	a4,64(sp)
   11b94:	66e2                	ld	a3,24(sp)
   11b96:	6642                	ld	a2,16(sp)
   11b98:	65a2                	ld	a1,8(sp)
   11b9a:	6502                	ld	a0,0(sp)
   11b9c:	009c                	addi	a5,sp,64
   11b9e:	f43e                	sd	a5,40(sp)
   11ba0:	0d800893          	li	a7,216
   11ba4:	00000073          	ecall
   11ba8:	a54ff0ef          	jal	ra,0x10dfc
   11bac:	b7f1                	j	0x11b78
   11bae:	8082                	ret
   11bb0:	1101                	addi	sp,sp,-32
   11bb2:	ec06                	sd	ra,24(sp)
   11bb4:	e42a                	sd	a0,8(sp)
   11bb6:	e02e                	sd	a1,0(sp)
   11bb8:	f21ff0ef          	jal	ra,0x11ad8
   11bbc:	0d700893          	li	a7,215
   11bc0:	6522                	ld	a0,8(sp)
   11bc2:	6582                	ld	a1,0(sp)
   11bc4:	00000073          	ecall
   11bc8:	a34ff0ef          	jal	ra,0x10dfc
   11bcc:	60e2                	ld	ra,24(sp)
   11bce:	2501                	sext.w	a0,a0
   11bd0:	6105                	addi	sp,sp,32
   11bd2:	8082                	ret
   11bd4:	711d                	addi	sp,sp,-96
   11bd6:	e4be                	sd	a5,72(sp)
   11bd8:	f42e                	sd	a1,40(sp)
   11bda:	85aa                	mv	a1,a0
   11bdc:	8581b503          	ld	a0,-1960(gp)
   11be0:	f832                	sd	a2,48(sp)
   11be2:	1030                	addi	a2,sp,40
   11be4:	ec06                	sd	ra,24(sp)
   11be6:	fc36                	sd	a3,56(sp)
   11be8:	e0ba                	sd	a4,64(sp)
   11bea:	e8c2                	sd	a6,80(sp)
   11bec:	ecc6                	sd	a7,88(sp)
   11bee:	e432                	sd	a2,8(sp)
   11bf0:	3e4010ef          	jal	ra,0x12fd4
   11bf4:	60e2                	ld	ra,24(sp)
   11bf6:	6125                	addi	sp,sp,96
   11bf8:	8082                	ret
   11bfa:	715d                	addi	sp,sp,-80
   11bfc:	f436                	sd	a3,40(sp)
   11bfe:	1034                	addi	a3,sp,40
   11c00:	ec06                	sd	ra,24(sp)
   11c02:	f83a                	sd	a4,48(sp)
   11c04:	fc3e                	sd	a5,56(sp)
   11c06:	e0c2                	sd	a6,64(sp)
   11c08:	e4c6                	sd	a7,72(sp)
   11c0a:	e436                	sd	a3,8(sp)
   11c0c:	52e010ef          	jal	ra,0x1313a
   11c10:	60e2                	ld	ra,24(sp)
   11c12:	6161                	addi	sp,sp,80
   11c14:	8082                	ret
   11c16:	715d                	addi	sp,sp,-80
   11c18:	f032                	sd	a2,32(sp)
   11c1a:	1010                	addi	a2,sp,32
   11c1c:	ec06                	sd	ra,24(sp)
   11c1e:	f436                	sd	a3,40(sp)
   11c20:	f83a                	sd	a4,48(sp)
   11c22:	fc3e                	sd	a5,56(sp)
   11c24:	e0c2                	sd	a6,64(sp)
   11c26:	e4c6                	sd	a7,72(sp)
   11c28:	e432                	sd	a2,8(sp)
   11c2a:	590010ef          	jal	ra,0x131ba
   11c2e:	60e2                	ld	ra,24(sp)
   11c30:	6161                	addi	sp,sp,80
   11c32:	8082                	ret
   11c34:	35dd                	addiw	a1,a1,-9
   11c36:	0005871b          	sext.w	a4,a1
   11c3a:	47c5                	li	a5,17
   11c3c:	08e7ee63          	bltu	a5,a4,0x11cd8
   11c40:	1582                	slli	a1,a1,0x20
   11c42:	67e1                	lui	a5,0x18
   11c44:	82878793          	addi	a5,a5,-2008 # 0x17828
   11c48:	81f9                	srli	a1,a1,0x1e
   11c4a:	95be                	add	a1,a1,a5
   11c4c:	4198                	lw	a4,0(a1)
   11c4e:	621c                	ld	a5,0(a2)
   11c50:	8702                	jr	a4
   11c52:	00878713          	addi	a4,a5,8
   11c56:	439c                	lw	a5,0(a5)
   11c58:	e218                	sd	a4,0(a2)
   11c5a:	e11c                	sd	a5,0(a0)
   11c5c:	8082                	ret
   11c5e:	00878713          	addi	a4,a5,8
   11c62:	e218                	sd	a4,0(a2)
   11c64:	0007e783          	lwu	a5,0(a5)
   11c68:	bfcd                	j	0x11c5a
   11c6a:	00878713          	addi	a4,a5,8
   11c6e:	e218                	sd	a4,0(a2)
   11c70:	00079783          	lh	a5,0(a5)
   11c74:	b7dd                	j	0x11c5a
   11c76:	00878713          	addi	a4,a5,8
   11c7a:	e218                	sd	a4,0(a2)
   11c7c:	0007d783          	lhu	a5,0(a5)
   11c80:	bfe9                	j	0x11c5a
   11c82:	00878713          	addi	a4,a5,8
   11c86:	e218                	sd	a4,0(a2)
   11c88:	00078783          	lb	a5,0(a5)
   11c8c:	b7f9                	j	0x11c5a
   11c8e:	00878713          	addi	a4,a5,8
   11c92:	e218                	sd	a4,0(a2)
   11c94:	0007c783          	lbu	a5,0(a5)
   11c98:	b7c9                	j	0x11c5a
   11c9a:	00878713          	addi	a4,a5,8
   11c9e:	e218                	sd	a4,0(a2)
   11ca0:	639c                	ld	a5,0(a5)
   11ca2:	bf65                	j	0x11c5a
   11ca4:	2388                	fld	fa0,0(a5)
   11ca6:	00878713          	addi	a4,a5,8
   11caa:	1141                	addi	sp,sp,-16
   11cac:	e218                	sd	a4,0(a2)
   11cae:	e022                	sd	s0,0(sp)
   11cb0:	e406                	sd	ra,8(sp)
   11cb2:	842a                	mv	s0,a0
   11cb4:	48d040ef          	jal	ra,0x16940
   11cb8:	e008                	sd	a0,0(s0)
   11cba:	e40c                	sd	a1,8(s0)
   11cbc:	60a2                	ld	ra,8(sp)
   11cbe:	6402                	ld	s0,0(sp)
   11cc0:	0141                	addi	sp,sp,16
   11cc2:	8082                	ret
   11cc4:	07bd                	addi	a5,a5,15
   11cc6:	9bc1                	andi	a5,a5,-16
   11cc8:	01078713          	addi	a4,a5,16
   11ccc:	e218                	sd	a4,0(a2)
   11cce:	6398                	ld	a4,0(a5)
   11cd0:	679c                	ld	a5,8(a5)
   11cd2:	e118                	sd	a4,0(a0)
   11cd4:	e51c                	sd	a5,8(a0)
   11cd6:	8082                	ret
   11cd8:	8082                	ret
   11cda:	4729                	li	a4,10
   11cdc:	e119                	bnez	a0,0x11ce2
   11cde:	852e                	mv	a0,a1
   11ce0:	8082                	ret
   11ce2:	02e577b3          	remu	a5,a0,a4
   11ce6:	15fd                	addi	a1,a1,-1
   11ce8:	0307879b          	addiw	a5,a5,48
   11cec:	00f58023          	sb	a5,0(a1)
   11cf0:	02e55533          	divu	a0,a0,a4
   11cf4:	b7e5                	j	0x11cdc
   11cf6:	0cccd637          	lui	a2,0xcccd
   11cfa:	800005b7          	lui	a1,0x80000
   11cfe:	4781                	li	a5,0
   11d00:	4325                	li	t1,9
   11d02:	ccc60613          	addi	a2,a2,-820 # 0xccccccc
   11d06:	5e59                	li	t3,-10
   11d08:	fff5c593          	not	a1,a1
   11d0c:	4ea9                	li	t4,10
   11d0e:	6114                	ld	a3,0(a0)
   11d10:	0006c703          	lbu	a4,0(a3)
   11d14:	fd07089b          	addiw	a7,a4,-48
   11d18:	8746                	mv	a4,a7
   11d1a:	01137463          	bgeu	t1,a7,0x11d22
   11d1e:	853e                	mv	a0,a5
   11d20:	8082                	ret
   11d22:	00f66e63          	bltu	a2,a5,0x11d3e
   11d26:	02fe083b          	mulw	a6,t3,a5
   11d2a:	00b8083b          	addw	a6,a6,a1
   11d2e:	01184863          	blt	a6,a7,0x11d3e
   11d32:	02fe87bb          	mulw	a5,t4,a5
   11d36:	9fb9                	addw	a5,a5,a4
   11d38:	0685                	addi	a3,a3,1
   11d3a:	e114                	sd	a3,0(a0)
   11d3c:	bfc9                	j	0x11d0e
   11d3e:	57fd                	li	a5,-1
   11d40:	bfe5                	j	0x11d38
   11d42:	872a                	mv	a4,a0
   11d44:	431c                	lw	a5,0(a4)
   11d46:	852e                	mv	a0,a1
   11d48:	85b2                	mv	a1,a2
   11d4a:	0207f793          	andi	a5,a5,32
   11d4e:	e781                	bnez	a5,0x11d56
   11d50:	863a                	mv	a2,a4
   11d52:	07d0206f          	j	0x145ce
   11d56:	8082                	ret
   11d58:	67c9                	lui	a5,0x12
   11d5a:	8f7d                	and	a4,a4,a5
   11d5c:	e73d                	bnez	a4,0x11dca
   11d5e:	06c6d663          	bge	a3,a2,0x11dca
   11d62:	7169                	addi	sp,sp,-304
   11d64:	f222                	sd	s0,288(sp)
   11d66:	ee26                	sd	s1,280(sp)
   11d68:	f606                	sd	ra,296(sp)
   11d6a:	40d604bb          	subw	s1,a2,a3
   11d6e:	ea4a                	sd	s2,272(sp)
   11d70:	e64e                	sd	s3,264(sp)
   11d72:	10000793          	li	a5,256
   11d76:	8426                	mv	s0,s1
   11d78:	0004861b          	sext.w	a2,s1
   11d7c:	0097d463          	bge	a5,s1,0x11d84
   11d80:	10000613          	li	a2,256
   11d84:	892a                	mv	s2,a0
   11d86:	850a                	mv	a0,sp
   11d88:	7be010ef          	jal	ra,0x13546
   11d8c:	0ff00993          	li	s3,255
   11d90:	0299c463          	blt	s3,s1,0x11db8
   11d94:	0084561b          	srliw	a2,s0,0x8
   11d98:	f0000793          	li	a5,-256
   11d9c:	02f6063b          	mulw	a2,a2,a5
   11da0:	858a                	mv	a1,sp
   11da2:	854a                	mv	a0,s2
   11da4:	9e21                	addw	a2,a2,s0
   11da6:	f9dff0ef          	jal	ra,0x11d42
   11daa:	70b2                	ld	ra,296(sp)
   11dac:	7412                	ld	s0,288(sp)
   11dae:	64f2                	ld	s1,280(sp)
   11db0:	6952                	ld	s2,272(sp)
   11db2:	69b2                	ld	s3,264(sp)
   11db4:	6155                	addi	sp,sp,304
   11db6:	8082                	ret
   11db8:	10000613          	li	a2,256
   11dbc:	858a                	mv	a1,sp
   11dbe:	854a                	mv	a0,s2
   11dc0:	f83ff0ef          	jal	ra,0x11d42
   11dc4:	f004849b          	addiw	s1,s1,-256
   11dc8:	b7e1                	j	0x11d90
   11dca:	8082                	ret
   11dcc:	7379                	lui	t1,0xffffe
   11dce:	7119                	addi	sp,sp,-128
   11dd0:	2c030313          	addi	t1,t1,704 # 0xffffffffffffe2c0
   11dd4:	f8a2                	sd	s0,112(sp)
   11dd6:	f4a6                	sd	s1,104(sp)
   11dd8:	e8d2                	sd	s4,80(sp)
   11dda:	e0da                	sd	s6,64(sp)
   11ddc:	fc5e                	sd	s7,56(sp)
   11dde:	f06a                	sd	s10,32(sp)
   11de0:	fc86                	sd	ra,120(sp)
   11de2:	f0ca                	sd	s2,96(sp)
   11de4:	ecce                	sd	s3,88(sp)
   11de6:	e4d6                	sd	s5,72(sp)
   11de8:	f862                	sd	s8,48(sp)
   11dea:	f466                	sd	s9,40(sp)
   11dec:	ec6e                	sd	s11,24(sp)
   11dee:	843a                	mv	s0,a4
   11df0:	911a                	add	sp,sp,t1
   11df2:	6709                	lui	a4,0x2
   11df4:	e036                	sd	a3,0(sp)
   11df6:	d1070713          	addi	a4,a4,-752 # 0x1d10
   11dfa:	0094                	addi	a3,sp,64
   11dfc:	8b3e                	mv	s6,a5
   11dfe:	9736                	add	a4,a4,a3
   11e00:	77f9                	lui	a5,0xffffe
   11e02:	97ba                	add	a5,a5,a4
   11e04:	84aa                	mv	s1,a0
   11e06:	8d2e                	mv	s10,a1
   11e08:	852e                	mv	a0,a1
   11e0a:	85b2                	mv	a1,a2
   11e0c:	8bb2                	mv	s7,a2
   11e0e:	8a42                	mv	s4,a6
   11e10:	e83e                	sd	a5,16(sp)
   11e12:	2e07ae23          	sw	zero,764(a5) # 0xffffffffffffe2fc
   11e16:	48a020ef          	jal	ra,0x142a0
   11e1a:	cd51                	beqz	a0,0x11eb6
   11e1c:	57fd                	li	a5,-1
   11e1e:	17fe                	slli	a5,a5,0x3f
   11e20:	000189b7          	lui	s3,0x18
   11e24:	00fbcbb3          	xor	s7,s7,a5
   11e28:	4c05                	li	s8,1
   11e2a:	be098993          	addi	s3,s3,-1056 # 0x17be0
   11e2e:	856a                	mv	a0,s10
   11e30:	85de                	mv	a1,s7
   11e32:	442020ef          	jal	ra,0x14274
   11e36:	4785                	li	a5,1
   11e38:	0ca7c363          	blt	a5,a0,0x11efe
   11e3c:	020a7a13          	andi	s4,s4,32
   11e40:	2a01                	sext.w	s4,s4
   11e42:	0a0a1463          	bnez	s4,0x11eea
   11e46:	00018937          	lui	s2,0x18
   11e4a:	c0090913          	addi	s2,s2,-1024 # 0x17c00
   11e4e:	866a                	mv	a2,s10
   11e50:	86de                	mv	a3,s7
   11e52:	856a                	mv	a0,s10
   11e54:	85de                	mv	a1,s7
   11e56:	23f030ef          	jal	ra,0x15894
   11e5a:	c519                	beqz	a0,0x11e68
   11e5c:	080a1c63          	bnez	s4,0x11ef4
   11e60:	00018937          	lui	s2,0x18
   11e64:	c1090913          	addi	s2,s2,-1008 # 0x17c10
   11e68:	6602                	ld	a2,0(sp)
   11e6a:	7741                	lui	a4,0xffff0
   11e6c:	003c0a1b          	addiw	s4,s8,3
   11e70:	177d                	addi	a4,a4,-1
   11e72:	00eb7733          	and	a4,s6,a4
   11e76:	86d2                	mv	a3,s4
   11e78:	02000593          	li	a1,32
   11e7c:	8526                	mv	a0,s1
   11e7e:	edbff0ef          	jal	ra,0x11d58
   11e82:	8662                	mv	a2,s8
   11e84:	85ce                	mv	a1,s3
   11e86:	8526                	mv	a0,s1
   11e88:	ebbff0ef          	jal	ra,0x11d42
   11e8c:	460d                	li	a2,3
   11e8e:	85ca                	mv	a1,s2
   11e90:	8526                	mv	a0,s1
   11e92:	eb1ff0ef          	jal	ra,0x11d42
   11e96:	6602                	ld	a2,0(sp)
   11e98:	6709                	lui	a4,0x2
   11e9a:	00eb4733          	xor	a4,s6,a4
   11e9e:	86d2                	mv	a3,s4
   11ea0:	02000593          	li	a1,32
   11ea4:	8526                	mv	a0,s1
   11ea6:	eb3ff0ef          	jal	ra,0x11d58
   11eaa:	6782                	ld	a5,0(sp)
   11eac:	8452                	mv	s0,s4
   11eae:	36fa5463          	bge	s4,a5,0x12216
   11eb2:	4402                	lw	s0,0(sp)
   11eb4:	a68d                	j	0x12216
   11eb6:	000b079b          	sext.w	a5,s6
   11eba:	03479713          	slli	a4,a5,0x34
   11ebe:	00074a63          	bltz	a4,0x11ed2
   11ec2:	8b85                	andi	a5,a5,1
   11ec4:	ef89                	bnez	a5,0x11ede
   11ec6:	000189b7          	lui	s3,0x18
   11eca:	8c2a                	mv	s8,a0
   11ecc:	be198993          	addi	s3,s3,-1055 # 0x17be1
   11ed0:	bfb9                	j	0x11e2e
   11ed2:	000189b7          	lui	s3,0x18
   11ed6:	4c05                	li	s8,1
   11ed8:	be398993          	addi	s3,s3,-1053 # 0x17be3
   11edc:	bf89                	j	0x11e2e
   11ede:	000189b7          	lui	s3,0x18
   11ee2:	4c05                	li	s8,1
   11ee4:	be698993          	addi	s3,s3,-1050 # 0x17be6
   11ee8:	b799                	j	0x11e2e
   11eea:	00018937          	lui	s2,0x18
   11eee:	bf890913          	addi	s2,s2,-1032 # 0x17bf8
   11ef2:	bfb1                	j	0x11e4e
   11ef4:	00018937          	lui	s2,0x18
   11ef8:	c0890913          	addi	s2,s2,-1016 # 0x17c08
   11efc:	b7b5                	j	0x11e68
   11efe:	6c89                	lui	s9,0x2
   11f00:	0098                	addi	a4,sp,64
   11f02:	7df9                	lui	s11,0xffffe
   11f04:	d10c8793          	addi	a5,s9,-752 # 0x1d10
   11f08:	97ba                	add	a5,a5,a4
   11f0a:	2fcd8613          	addi	a2,s11,764 # 0xffffffffffffe2fc
   11f0e:	963e                	add	a2,a2,a5
   11f10:	856a                	mv	a0,s10
   11f12:	85de                	mv	a1,s7
   11f14:	392020ef          	jal	ra,0x142a6
   11f18:	862a                	mv	a2,a0
   11f1a:	86ae                	mv	a3,a1
   11f1c:	154030ef          	jal	ra,0x15070
   11f20:	4601                	li	a2,0
   11f22:	4681                	li	a3,0
   11f24:	8d2a                	mv	s10,a0
   11f26:	8aae                	mv	s5,a1
   11f28:	8baa                	mv	s7,a0
   11f2a:	892e                	mv	s2,a1
   11f2c:	169030ef          	jal	ra,0x15894
   11f30:	cd01                	beqz	a0,0x11f48
   11f32:	d10c8793          	addi	a5,s9,-752
   11f36:	0098                	addi	a4,sp,64
   11f38:	97ba                	add	a5,a5,a4
   11f3a:	97ee                	add	a5,a5,s11
   11f3c:	2fc7a683          	lw	a3,764(a5)
   11f40:	e83e                	sd	a5,16(sp)
   11f42:	36fd                	addiw	a3,a3,-1
   11f44:	2ed7ae23          	sw	a3,764(a5)
   11f48:	020a6c93          	ori	s9,s4,32
   11f4c:	06100693          	li	a3,97
   11f50:	2cdc9963          	bne	s9,a3,0x12222
   11f54:	020a7793          	andi	a5,s4,32
   11f58:	f03e                	sd	a5,32(sp)
   11f5a:	c391                	beqz	a5,0x11f5e
   11f5c:	09a5                	addi	s3,s3,9
   11f5e:	002c0c9b          	addiw	s9,s8,2
   11f62:	0004079b          	sext.w	a5,s0
   11f66:	c466                	sw	s9,8(sp)
   11f68:	ec3e                	sd	a5,24(sp)
   11f6a:	46e9                	li	a3,26
   11f6c:	00018db7          	lui	s11,0x18
   11f70:	04f6e563          	bltu	a3,a5,0x11fba
   11f74:	000186b7          	lui	a3,0x18
   11f78:	b586bb83          	ld	s7,-1192(a3) # 0x17b58
   11f7c:	496d                	li	s2,27
   11f7e:	4089093b          	subw	s2,s2,s0
   11f82:	4c01                	li	s8,0
   11f84:	587d                	li	a6,-1
   11f86:	397d                	addiw	s2,s2,-1
   11f88:	1b091063          	bne	s2,a6,0x12128
   11f8c:	0009c603          	lbu	a2,0(s3)
   11f90:	02d00693          	li	a3,45
   11f94:	1ad61663          	bne	a2,a3,0x12140
   11f98:	197e                	slli	s2,s2,0x3f
   11f9a:	86de                	mv	a3,s7
   11f9c:	8662                	mv	a2,s8
   11f9e:	012ac5b3          	xor	a1,s5,s2
   11fa2:	856a                	mv	a0,s10
   11fa4:	7bb030ef          	jal	ra,0x15f5e
   11fa8:	862a                	mv	a2,a0
   11faa:	86ae                	mv	a3,a1
   11fac:	8562                	mv	a0,s8
   11fae:	85de                	mv	a1,s7
   11fb0:	0c0030ef          	jal	ra,0x15070
   11fb4:	8baa                	mv	s7,a0
   11fb6:	0125c933          	xor	s2,a1,s2
   11fba:	6689                	lui	a3,0x2
   11fbc:	77f9                	lui	a5,0xffffe
   11fbe:	0090                	addi	a2,sp,64
   11fc0:	d1068713          	addi	a4,a3,-752 # 0x1d10
   11fc4:	30078c13          	addi	s8,a5,768 # 0xffffffffffffe300
   11fc8:	9732                	add	a4,a4,a2
   11fca:	9c3a                	add	s8,s8,a4
   11fcc:	d1068713          	addi	a4,a3,-752
   11fd0:	9732                	add	a4,a4,a2
   11fd2:	97ba                	add	a5,a5,a4
   11fd4:	e83e                	sd	a5,16(sp)
   11fd6:	2fc7a783          	lw	a5,764(a5)
   11fda:	00cc0a93          	addi	s5,s8,12
   11fde:	85d6                	mv	a1,s5
   11fe0:	41f7d51b          	sraiw	a0,a5,0x1f
   11fe4:	8fa9                	xor	a5,a5,a0
   11fe6:	40a7853b          	subw	a0,a5,a0
   11fea:	cf1ff0ef          	jal	ra,0x11cda
   11fee:	01551963          	bne	a0,s5,0x12000
   11ff2:	6742                	ld	a4,16(sp)
   11ff4:	03000793          	li	a5,48
   11ff8:	00bc0513          	addi	a0,s8,11
   11ffc:	30f705a3          	sb	a5,779(a4) # 0x230b
   12000:	6709                	lui	a4,0x2
   12002:	d1070713          	addi	a4,a4,-752 # 0x1d10
   12006:	0094                	addi	a3,sp,64
   12008:	9736                	add	a4,a4,a3
   1200a:	77f9                	lui	a5,0xffffe
   1200c:	97ba                	add	a5,a5,a4
   1200e:	2fc7a703          	lw	a4,764(a5) # 0xffffffffffffe2fc
   12012:	e83e                	sd	a5,16(sp)
   12014:	02d00793          	li	a5,45
   12018:	00074463          	bltz	a4,0x12020
   1201c:	02b00793          	li	a5,43
   12020:	6709                	lui	a4,0x2
   12022:	fef50fa3          	sb	a5,-1(a0)
   12026:	d1070713          	addi	a4,a4,-752 # 0x1d10
   1202a:	77f9                	lui	a5,0xffffe
   1202c:	0094                	addi	a3,sp,64
   1202e:	31078793          	addi	a5,a5,784 # 0xffffffffffffe310
   12032:	9736                	add	a4,a4,a3
   12034:	00f70ab3          	add	s5,a4,a5
   12038:	6761                	lui	a4,0x18
   1203a:	97070793          	addi	a5,a4,-1680 # 0x17970
   1203e:	e83e                	sd	a5,16(sp)
   12040:	bb8db783          	ld	a5,-1096(s11) # 0x17bb8
   12044:	2a3d                	addiw	s4,s4,15
   12046:	008b7d93          	andi	s11,s6,8
   1204a:	ffe50c13          	addi	s8,a0,-2
   1204e:	ff450f23          	sb	s4,-2(a0)
   12052:	f83e                	sd	a5,48(sp)
   12054:	f456                	sd	s5,40(sp)
   12056:	2d81                	sext.w	s11,s11
   12058:	85ca                	mv	a1,s2
   1205a:	855e                	mv	a0,s7
   1205c:	732040ef          	jal	ra,0x1678e
   12060:	67c2                	ld	a5,16(sp)
   12062:	0005071b          	sext.w	a4,a0
   12066:	001a8a13          	addi	s4,s5,1
   1206a:	973e                	add	a4,a4,a5
   1206c:	00074703          	lbu	a4,0(a4)
   12070:	7782                	ld	a5,32(sp)
   12072:	8f5d                	or	a4,a4,a5
   12074:	00ea8023          	sb	a4,0(s5)
   12078:	013040ef          	jal	ra,0x1688a
   1207c:	862a                	mv	a2,a0
   1207e:	86ae                	mv	a3,a1
   12080:	855e                	mv	a0,s7
   12082:	85ca                	mv	a1,s2
   12084:	6db030ef          	jal	ra,0x15f5e
   12088:	76c2                	ld	a3,48(sp)
   1208a:	4601                	li	a2,0
   1208c:	0a5030ef          	jal	ra,0x15930
   12090:	7722                	ld	a4,40(sp)
   12092:	8d2a                	mv	s10,a0
   12094:	87ae                	mv	a5,a1
   12096:	40ea06b3          	sub	a3,s4,a4
   1209a:	4705                	li	a4,1
   1209c:	8baa                	mv	s7,a0
   1209e:	892e                	mv	s2,a1
   120a0:	02e69363          	bne	a3,a4,0x120c6
   120a4:	4601                	li	a2,0
   120a6:	4681                	li	a3,0
   120a8:	fc2e                	sd	a1,56(sp)
   120aa:	7ea030ef          	jal	ra,0x15894
   120ae:	77e2                	ld	a5,56(sp)
   120b0:	e509                	bnez	a0,0x120ba
   120b2:	00804463          	bgtz	s0,0x120ba
   120b6:	000d8f63          	beqz	s11,0x120d4
   120ba:	02e00713          	li	a4,46
   120be:	002a8a13          	addi	s4,s5,2
   120c2:	00ea80a3          	sb	a4,1(s5)
   120c6:	4601                	li	a2,0
   120c8:	4681                	li	a3,0
   120ca:	856a                	mv	a0,s10
   120cc:	85be                	mv	a1,a5
   120ce:	7c6030ef          	jal	ra,0x15894
   120d2:	e541                	bnez	a0,0x1215a
   120d4:	6789                	lui	a5,0x2
   120d6:	d1078793          	addi	a5,a5,-752 # 0x1d10
   120da:	0094                	addi	a3,sp,64
   120dc:	97b6                	add	a5,a5,a3
   120de:	7779                	lui	a4,0xffffe
   120e0:	00e78bb3          	add	s7,a5,a4
   120e4:	30cb8b93          	addi	s7,s7,780
   120e8:	800007b7          	lui	a5,0x80000
   120ec:	418b8bb3          	sub	s7,s7,s8
   120f0:	ffd7c793          	xori	a5,a5,-3
   120f4:	417787b3          	sub	a5,a5,s7
   120f8:	419787b3          	sub	a5,a5,s9
   120fc:	0687d163          	bge	a5,s0,0x1215e
   12100:	557d                	li	a0,-1
   12102:	6309                	lui	t1,0x2
   12104:	d4030313          	addi	t1,t1,-704 # 0x1d40
   12108:	911a                	add	sp,sp,t1
   1210a:	70e6                	ld	ra,120(sp)
   1210c:	7446                	ld	s0,112(sp)
   1210e:	74a6                	ld	s1,104(sp)
   12110:	7906                	ld	s2,96(sp)
   12112:	69e6                	ld	s3,88(sp)
   12114:	6a46                	ld	s4,80(sp)
   12116:	6aa6                	ld	s5,72(sp)
   12118:	6b06                	ld	s6,64(sp)
   1211a:	7be2                	ld	s7,56(sp)
   1211c:	7c42                	ld	s8,48(sp)
   1211e:	7ca2                	ld	s9,40(sp)
   12120:	7d02                	ld	s10,32(sp)
   12122:	6de2                	ld	s11,24(sp)
   12124:	6109                	addi	sp,sp,128
   12126:	8082                	ret
   12128:	040037b7          	lui	a5,0x4003
   1212c:	8562                	mv	a0,s8
   1212e:	85de                	mv	a1,s7
   12130:	4601                	li	a2,0
   12132:	02479693          	slli	a3,a5,0x24
   12136:	7fa030ef          	jal	ra,0x15930
   1213a:	8c2a                	mv	s8,a0
   1213c:	8bae                	mv	s7,a1
   1213e:	b599                	j	0x11f84
   12140:	866a                	mv	a2,s10
   12142:	86d6                	mv	a3,s5
   12144:	85de                	mv	a1,s7
   12146:	8562                	mv	a0,s8
   12148:	729020ef          	jal	ra,0x15070
   1214c:	86de                	mv	a3,s7
   1214e:	8662                	mv	a2,s8
   12150:	60f030ef          	jal	ra,0x15f5e
   12154:	8baa                	mv	s7,a0
   12156:	892e                	mv	s2,a1
   12158:	b58d                	j	0x11fba
   1215a:	8ad2                	mv	s5,s4
   1215c:	bdf5                	j	0x12058
   1215e:	6789                	lui	a5,0x2
   12160:	d1078793          	addi	a5,a5,-752 # 0x1d10
   12164:	0094                	addi	a3,sp,64
   12166:	97b6                	add	a5,a5,a3
   12168:	31070713          	addi	a4,a4,784 # 0xffffffffffffe310
   1216c:	973e                	add	a4,a4,a5
   1216e:	40ea0a33          	sub	s4,s4,a4
   12172:	000b879b          	sext.w	a5,s7
   12176:	00fa0dbb          	addw	s11,s4,a5
   1217a:	c04d                	beqz	s0,0x1221c
   1217c:	fffa0713          	addi	a4,s4,-1
   12180:	08e44e63          	blt	s0,a4,0x1221c
   12184:	6762                	ld	a4,24(sp)
   12186:	0027091b          	addiw	s2,a4,2
   1218a:	00f9093b          	addw	s2,s2,a5
   1218e:	47a2                	lw	a5,8(sp)
   12190:	6602                	ld	a2,0(sp)
   12192:	875a                	mv	a4,s6
   12194:	00f90d3b          	addw	s10,s2,a5
   12198:	86ea                	mv	a3,s10
   1219a:	02000593          	li	a1,32
   1219e:	8526                	mv	a0,s1
   121a0:	bb9ff0ef          	jal	ra,0x11d58
   121a4:	8666                	mv	a2,s9
   121a6:	85ce                	mv	a1,s3
   121a8:	8526                	mv	a0,s1
   121aa:	b99ff0ef          	jal	ra,0x11d42
   121ae:	6602                	ld	a2,0(sp)
   121b0:	2b01                	sext.w	s6,s6
   121b2:	6741                	lui	a4,0x10
   121b4:	86ea                	mv	a3,s10
   121b6:	00eb4733          	xor	a4,s6,a4
   121ba:	03000593          	li	a1,48
   121be:	8526                	mv	a0,s1
   121c0:	b99ff0ef          	jal	ra,0x11d58
   121c4:	6789                	lui	a5,0x2
   121c6:	0098                	addi	a4,sp,64
   121c8:	75f9                	lui	a1,0xffffe
   121ca:	d1078793          	addi	a5,a5,-752 # 0x1d10
   121ce:	97ba                	add	a5,a5,a4
   121d0:	31058593          	addi	a1,a1,784 # 0xffffffffffffe310
   121d4:	95be                	add	a1,a1,a5
   121d6:	8652                	mv	a2,s4
   121d8:	8526                	mv	a0,s1
   121da:	b69ff0ef          	jal	ra,0x11d42
   121de:	4701                	li	a4,0
   121e0:	4681                	li	a3,0
   121e2:	41b9063b          	subw	a2,s2,s11
   121e6:	03000593          	li	a1,48
   121ea:	8526                	mv	a0,s1
   121ec:	b6dff0ef          	jal	ra,0x11d58
   121f0:	865e                	mv	a2,s7
   121f2:	85e2                	mv	a1,s8
   121f4:	8526                	mv	a0,s1
   121f6:	b4dff0ef          	jal	ra,0x11d42
   121fa:	6602                	ld	a2,0(sp)
   121fc:	6709                	lui	a4,0x2
   121fe:	00eb4733          	xor	a4,s6,a4
   12202:	86ea                	mv	a3,s10
   12204:	02000593          	li	a1,32
   12208:	8526                	mv	a0,s1
   1220a:	b4fff0ef          	jal	ra,0x11d58
   1220e:	6782                	ld	a5,0(sp)
   12210:	846a                	mv	s0,s10
   12212:	cafd40e3          	blt	s10,a5,0x11eb2
   12216:	0004051b          	sext.w	a0,s0
   1221a:	b5e5                	j	0x12102
   1221c:	000d891b          	sext.w	s2,s11
   12220:	b7bd                	j	0x1218e
   12222:	00045363          	bgez	s0,0x12228
   12226:	4419                	li	s0,6
   12228:	4601                	li	a2,0
   1222a:	4681                	li	a3,0
   1222c:	856a                	mv	a0,s10
   1222e:	85d6                	mv	a1,s5
   12230:	664030ef          	jal	ra,0x15894
   12234:	c915                	beqz	a0,0x12268
   12236:	000186b7          	lui	a3,0x18
   1223a:	bc86b683          	ld	a3,-1080(a3) # 0x17bc8
   1223e:	4601                	li	a2,0
   12240:	856a                	mv	a0,s10
   12242:	85d6                	mv	a1,s5
   12244:	6ec030ef          	jal	ra,0x15930
   12248:	6709                	lui	a4,0x2
   1224a:	d1070713          	addi	a4,a4,-752 # 0x1d10
   1224e:	0094                	addi	a3,sp,64
   12250:	9736                	add	a4,a4,a3
   12252:	77f9                	lui	a5,0xffffe
   12254:	97ba                	add	a5,a5,a4
   12256:	e83e                	sd	a5,16(sp)
   12258:	2fc7a783          	lw	a5,764(a5) # 0xffffffffffffe2fc
   1225c:	6742                	ld	a4,16(sp)
   1225e:	8baa                	mv	s7,a0
   12260:	3791                	addiw	a5,a5,-28
   12262:	892e                	mv	s2,a1
   12264:	2ef72e23          	sw	a5,764(a4)
   12268:	4336                	lw	t1,76(sp)
   1226a:	6709                	lui	a4,0x2
   1226c:	b4870693          	addi	a3,a4,-1208 # 0x1b48
   12270:	0090                	addi	a2,sp,64
   12272:	77f9                	lui	a5,0xffffe
   12274:	00d608b3          	add	a7,a2,a3
   12278:	00035863          	bgez	t1,0x12288
   1227c:	33878893          	addi	a7,a5,824 # 0xffffffffffffe338
   12280:	d1070793          	addi	a5,a4,-752
   12284:	97b2                	add	a5,a5,a2
   12286:	98be                	add	a7,a7,a5
   12288:	00018737          	lui	a4,0x18
   1228c:	bd873d83          	ld	s11,-1064(a4) # 0x17bd8
   12290:	8ac6                	mv	s5,a7
   12292:	85ca                	mv	a1,s2
   12294:	855e                	mv	a0,s7
   12296:	ec46                	sd	a7,24(sp)
   12298:	e81a                	sd	t1,16(sp)
   1229a:	584040ef          	jal	ra,0x1681e
   1229e:	00aaa023          	sw	a0,0(s5)
   122a2:	652040ef          	jal	ra,0x168f4
   122a6:	862a                	mv	a2,a0
   122a8:	86ae                	mv	a3,a1
   122aa:	855e                	mv	a0,s7
   122ac:	85ca                	mv	a1,s2
   122ae:	4b1030ef          	jal	ra,0x15f5e
   122b2:	4601                	li	a2,0
   122b4:	86ee                	mv	a3,s11
   122b6:	67a030ef          	jal	ra,0x15930
   122ba:	4601                	li	a2,0
   122bc:	4681                	li	a3,0
   122be:	8baa                	mv	s7,a0
   122c0:	892e                	mv	s2,a1
   122c2:	5d2030ef          	jal	ra,0x15894
   122c6:	0a91                	addi	s5,s5,4
   122c8:	6342                	ld	t1,16(sp)
   122ca:	68e2                	ld	a7,24(sp)
   122cc:	f179                	bnez	a0,0x12292
   122ce:	3b9ad537          	lui	a0,0x3b9ad
   122d2:	8d46                	mv	s10,a7
   122d4:	4701                	li	a4,0
   122d6:	4e75                	li	t3,29
   122d8:	a0050513          	addi	a0,a0,-1536 # 0x3b9aca00
   122dc:	14604363          	bgtz	t1,0x12422
   122e0:	cb19                	beqz	a4,0x122f6
   122e2:	6789                	lui	a5,0x2
   122e4:	d1078793          	addi	a5,a5,-752 # 0x1d10
   122e8:	0094                	addi	a3,sp,64
   122ea:	7779                	lui	a4,0xffffe
   122ec:	97b6                	add	a5,a5,a3
   122ee:	97ba                	add	a5,a5,a4
   122f0:	e83e                	sd	a5,16(sp)
   122f2:	2e67ae23          	sw	t1,764(a5)
   122f6:	46a5                	li	a3,9
   122f8:	02d4071b          	addiw	a4,s0,45
   122fc:	02d7573b          	divuw	a4,a4,a3
   12300:	6789                	lui	a5,0x2
   12302:	0090                	addi	a2,sp,64
   12304:	d1078793          	addi	a5,a5,-752 # 0x1d10
   12308:	76f9                	lui	a3,0xffffe
   1230a:	97b2                	add	a5,a5,a2
   1230c:	97b6                	add	a5,a5,a3
   1230e:	2fc7a683          	lw	a3,764(a5)
   12312:	3b9ade37          	lui	t3,0x3b9ad
   12316:	e83e                	sd	a5,16(sp)
   12318:	4601                	li	a2,0
   1231a:	5f5d                	li	t5,-9
   1231c:	4f85                	li	t6,1
   1231e:	a00e0e1b          	addiw	t3,t3,-1536
   12322:	06600293          	li	t0,102
   12326:	2705                	addiw	a4,a4,1
   12328:	1702                	slli	a4,a4,0x20
   1232a:	9301                	srli	a4,a4,0x20
   1232c:	00271e93          	slli	t4,a4,0x2
   12330:	1406c163          	bltz	a3,0x12472
   12334:	ca19                	beqz	a2,0x1234a
   12336:	6789                	lui	a5,0x2
   12338:	d1078793          	addi	a5,a5,-752 # 0x1d10
   1233c:	0090                	addi	a2,sp,64
   1233e:	7779                	lui	a4,0xffffe
   12340:	97b2                	add	a5,a5,a2
   12342:	97ba                	add	a5,a5,a4
   12344:	e83e                	sd	a5,16(sp)
   12346:	2ed7ae23          	sw	a3,764(a5)
   1234a:	4301                	li	t1,0
   1234c:	015d7f63          	bgeu	s10,s5,0x1236a
   12350:	41a88333          	sub	t1,a7,s10
   12354:	000d2683          	lw	a3,0(s10)
   12358:	40235713          	srai	a4,t1,0x2
   1235c:	4325                	li	t1,9
   1235e:	02e3033b          	mulw	t1,t1,a4
   12362:	4629                	li	a2,10
   12364:	4729                	li	a4,10
   12366:	16e6f863          	bgeu	a3,a4,0x124d6
   1236a:	f9ac8713          	addi	a4,s9,-102
   1236e:	00e03733          	snez	a4,a4
   12372:	06700613          	li	a2,103
   12376:	4681                	li	a3,0
   12378:	0267073b          	mulw	a4,a4,t1
   1237c:	40e4073b          	subw	a4,s0,a4
   12380:	00cc9463          	bne	s9,a2,0x12388
   12384:	008036b3          	snez	a3,s0
   12388:	40d7063b          	subw	a2,a4,a3
   1238c:	411a8733          	sub	a4,s5,a7
   12390:	8709                	srai	a4,a4,0x2
   12392:	177d                	addi	a4,a4,-1
   12394:	45a5                	li	a1,9
   12396:	02b70733          	mul	a4,a4,a1
   1239a:	1ae65863          	bge	a2,a4,0x1254a
   1239e:	00024737          	lui	a4,0x24
   123a2:	9f31                	addw	a4,a4,a2
   123a4:	4625                	li	a2,9
   123a6:	02c7493b          	divw	s2,a4,a2
   123aa:	76c1                	lui	a3,0xffff0
   123ac:	0691                	addi	a3,a3,4
   123ae:	45a9                	li	a1,10
   123b0:	02c7673b          	remw	a4,a4,a2
   123b4:	090a                	slli	s2,s2,0x2
   123b6:	9936                	add	s2,s2,a3
   123b8:	9946                	add	s2,s2,a7
   123ba:	46a9                	li	a3,10
   123bc:	4625                	li	a2,9
   123be:	2705                	addiw	a4,a4,1
   123c0:	10c71f63          	bne	a4,a2,0x124de
   123c4:	00092703          	lw	a4,0(s2)
   123c8:	00068e9b          	sext.w	t4,a3
   123cc:	03d7763b          	remuw	a2,a4,t4
   123d0:	8db2                	mv	s11,a2
   123d2:	e609                	bnez	a2,0x123dc
   123d4:	00490593          	addi	a1,s2,4
   123d8:	16ba8563          	beq	s5,a1,0x12542
   123dc:	03d755bb          	divuw	a1,a4,t4
   123e0:	8985                	andi	a1,a1,1
   123e2:	ed89                	bnez	a1,0x123fc
   123e4:	3b9ad5b7          	lui	a1,0x3b9ad
   123e8:	a0058593          	addi	a1,a1,-1536 # 0x3b9aca00
   123ec:	0eb69d63          	bne	a3,a1,0x124e6
   123f0:	0f2d7b63          	bgeu	s10,s2,0x124e6
   123f4:	ffc92583          	lw	a1,-4(s2)
   123f8:	8985                	andi	a1,a1,1
   123fa:	c5f5                	beqz	a1,0x124e6
   123fc:	000185b7          	lui	a1,0x18
   12400:	b785bb83          	ld	s7,-1160(a1) # 0x17b78
   12404:	4e05                	li	t3,1
   12406:	8685                	srai	a3,a3,0x1
   12408:	0ed66563          	bltu	a2,a3,0x124f2
   1240c:	00c69663          	bne	a3,a2,0x12418
   12410:	00490693          	addi	a3,s2,4
   12414:	2ada8063          	beq	s5,a3,0x126b4
   12418:	000186b7          	lui	a3,0x18
   1241c:	b886b683          	ld	a3,-1144(a3) # 0x17b88
   12420:	a8e9                	j	0x124fa
   12422:	0003061b          	sext.w	a2,t1
   12426:	006e5363          	bge	t3,t1,0x1242c
   1242a:	4675                	li	a2,29
   1242c:	ffca8593          	addi	a1,s5,-4
   12430:	4701                	li	a4,0
   12432:	01a5ff63          	bgeu	a1,s10,0x12450
   12436:	c701                	beqz	a4,0x1243e
   12438:	feed2e23          	sw	a4,-4(s10)
   1243c:	1d71                	addi	s10,s10,-4
   1243e:	015d7563          	bgeu	s10,s5,0x12448
   12442:	ffcaa703          	lw	a4,-4(s5)
   12446:	c705                	beqz	a4,0x1246e
   12448:	40c3033b          	subw	t1,t1,a2
   1244c:	4705                	li	a4,1
   1244e:	b579                	j	0x122dc
   12450:	0005e683          	lwu	a3,0(a1)
   12454:	1702                	slli	a4,a4,0x20
   12456:	9301                	srli	a4,a4,0x20
   12458:	00c696b3          	sll	a3,a3,a2
   1245c:	9736                	add	a4,a4,a3
   1245e:	02a776b3          	remu	a3,a4,a0
   12462:	15f1                	addi	a1,a1,-4
   12464:	02a75733          	divu	a4,a4,a0
   12468:	c1d4                	sw	a3,4(a1)
   1246a:	2701                	sext.w	a4,a4
   1246c:	b7d9                	j	0x12432
   1246e:	1af1                	addi	s5,s5,-4
   12470:	b7f9                	j	0x1243e
   12472:	45a5                	li	a1,9
   12474:	01e6c463          	blt	a3,t5,0x1247c
   12478:	40d005bb          	negw	a1,a3
   1247c:	00bf93bb          	sllw	t2,t6,a1
   12480:	33fd                	addiw	t2,t2,-1
   12482:	40be593b          	sraw	s2,t3,a1
   12486:	866a                	mv	a2,s10
   12488:	4501                	li	a0,0
   1248a:	03566863          	bltu	a2,s5,0x124ba
   1248e:	000d2603          	lw	a2,0(s10)
   12492:	e211                	bnez	a2,0x12496
   12494:	0d11                	addi	s10,s10,4
   12496:	c501                	beqz	a0,0x1249e
   12498:	00aaa023          	sw	a0,0(s5)
   1249c:	0a91                	addi	s5,s5,4
   1249e:	8646                	mv	a2,a7
   124a0:	005c8363          	beq	s9,t0,0x124a6
   124a4:	866a                	mv	a2,s10
   124a6:	40ca8533          	sub	a0,s5,a2
   124aa:	8509                	srai	a0,a0,0x2
   124ac:	00a75463          	bge	a4,a0,0x124b4
   124b0:	01d60ab3          	add	s5,a2,t4
   124b4:	9ead                	addw	a3,a3,a1
   124b6:	4605                	li	a2,1
   124b8:	bda5                	j	0x12330
   124ba:	00062303          	lw	t1,0(a2)
   124be:	0611                	addi	a2,a2,4
   124c0:	00b35bbb          	srlw	s7,t1,a1
   124c4:	00ab853b          	addw	a0,s7,a0
   124c8:	fea62e23          	sw	a0,-4(a2)
   124cc:	00737533          	and	a0,t1,t2
   124d0:	0325053b          	mulw	a0,a0,s2
   124d4:	bf5d                	j	0x1248a
   124d6:	02e6073b          	mulw	a4,a2,a4
   124da:	2305                	addiw	t1,t1,1
   124dc:	b569                	j	0x12366
   124de:	02d586bb          	mulw	a3,a1,a3
   124e2:	2705                	addiw	a4,a4,1
   124e4:	bdf1                	j	0x123c0
   124e6:	000185b7          	lui	a1,0x18
   124ea:	4e01                	li	t3,0
   124ec:	b685bb83          	ld	s7,-1176(a1) # 0x17b68
   124f0:	bf19                	j	0x12406
   124f2:	000186b7          	lui	a3,0x18
   124f6:	ba86b683          	ld	a3,-1112(a3) # 0x17ba8
   124fa:	000c0d63          	beqz	s8,0x12514
   124fe:	0009c583          	lbu	a1,0(s3)
   12502:	02d00613          	li	a2,45
   12506:	00c59763          	bne	a1,a2,0x12514
   1250a:	567d                	li	a2,-1
   1250c:	167e                	slli	a2,a2,0x3f
   1250e:	00cbcbb3          	xor	s7,s7,a2
   12512:	8eb1                	xor	a3,a3,a2
   12514:	4601                	li	a2,0
   12516:	8572                	mv	a0,t3
   12518:	85de                	mv	a1,s7
   1251a:	f446                	sd	a7,40(sp)
   1251c:	ec76                	sd	t4,24(sp)
   1251e:	f01a                	sd	t1,32(sp)
   12520:	41b70dbb          	subw	s11,a4,s11
   12524:	e872                	sd	t3,16(sp)
   12526:	34b020ef          	jal	ra,0x15070
   1252a:	6e42                	ld	t3,16(sp)
   1252c:	86de                	mv	a3,s7
   1252e:	8672                	mv	a2,t3
   12530:	364030ef          	jal	ra,0x15894
   12534:	6ee2                	ld	t4,24(sp)
   12536:	78a2                	ld	a7,40(sp)
   12538:	18051363          	bnez	a0,0x126be
   1253c:	7302                	ld	t1,32(sp)
   1253e:	01b92023          	sw	s11,0(s2)
   12542:	0911                	addi	s2,s2,4
   12544:	01597363          	bgeu	s2,s5,0x1254a
   12548:	8aca                	mv	s5,s2
   1254a:	015d7663          	bgeu	s10,s5,0x12556
   1254e:	ffcaa703          	lw	a4,-4(s5)
   12552:	1c070163          	beqz	a4,0x12714
   12556:	06700713          	li	a4,103
   1255a:	04ec9d63          	bne	s9,a4,0x125b4
   1255e:	e011                	bnez	s0,0x12562
   12560:	4405                	li	s0,1
   12562:	1a835b63          	bge	t1,s0,0x12718
   12566:	5771                	li	a4,-4
   12568:	1ae34863          	blt	t1,a4,0x12718
   1256c:	0013071b          	addiw	a4,t1,1
   12570:	3a7d                	addiw	s4,s4,-1
   12572:	9c19                	subw	s0,s0,a4
   12574:	008b7713          	andi	a4,s6,8
   12578:	ef15                	bnez	a4,0x125b4
   1257a:	46a5                	li	a3,9
   1257c:	015d7663          	bgeu	s10,s5,0x12588
   12580:	ffcaa603          	lw	a2,-4(s5)
   12584:	1a061463          	bnez	a2,0x1272c
   12588:	411a8733          	sub	a4,s5,a7
   1258c:	8709                	srai	a4,a4,0x2
   1258e:	4625                	li	a2,9
   12590:	177d                	addi	a4,a4,-1
   12592:	02c70733          	mul	a4,a4,a2
   12596:	06600593          	li	a1,102
   1259a:	020a6613          	ori	a2,s4,32
   1259e:	18b61b63          	bne	a2,a1,0x12734
   125a2:	8f15                	sub	a4,a4,a3
   125a4:	00075363          	bgez	a4,0x125aa
   125a8:	4701                	li	a4,0
   125aa:	00e45363          	bge	s0,a4,0x125b0
   125ae:	8722                	mv	a4,s0
   125b0:	0007041b          	sext.w	s0,a4
   125b4:	80000737          	lui	a4,0x80000
   125b8:	ffd74713          	xori	a4,a4,-3
   125bc:	b48742e3          	blt	a4,s0,0x12100
   125c0:	000b0b9b          	sext.w	s7,s6
   125c4:	008bf913          	andi	s2,s7,8
   125c8:	2901                	sext.w	s2,s2
   125ca:	012467b3          	or	a5,s0,s2
   125ce:	00f036b3          	snez	a3,a5
   125d2:	0014071b          	addiw	a4,s0,1
   125d6:	9f35                	addw	a4,a4,a3
   125d8:	800006b7          	lui	a3,0x80000
   125dc:	fff6c693          	not	a3,a3
   125e0:	ec3e                	sd	a5,24(sp)
   125e2:	020a6d93          	ori	s11,s4,32
   125e6:	06600613          	li	a2,102
   125ea:	0007051b          	sext.w	a0,a4
   125ee:	9e99                	subw	a3,a3,a4
   125f0:	14cd9463          	bne	s11,a2,0x12738
   125f4:	b066c6e3          	blt	a3,t1,0x12100
   125f8:	00605463          	blez	t1,0x12600
   125fc:	0067053b          	addw	a0,a4,t1
   12600:	80000737          	lui	a4,0x80000
   12604:	fff74713          	not	a4,a4
   12608:	f046                	sd	a7,32(sp)
   1260a:	4187073b          	subw	a4,a4,s8
   1260e:	aea749e3          	blt	a4,a0,0x12100
   12612:	6602                	ld	a2,0(sp)
   12614:	01850a3b          	addw	s4,a0,s8
   12618:	875a                	mv	a4,s6
   1261a:	86d2                	mv	a3,s4
   1261c:	02000593          	li	a1,32
   12620:	8526                	mv	a0,s1
   12622:	c852                	sw	s4,16(sp)
   12624:	f34ff0ef          	jal	ra,0x11d58
   12628:	8662                	mv	a2,s8
   1262a:	85ce                	mv	a1,s3
   1262c:	8526                	mv	a0,s1
   1262e:	f14ff0ef          	jal	ra,0x11d42
   12632:	6602                	ld	a2,0(sp)
   12634:	6741                	lui	a4,0x10
   12636:	00ebc733          	xor	a4,s7,a4
   1263a:	86d2                	mv	a3,s4
   1263c:	03000593          	li	a1,48
   12640:	8526                	mv	a0,s1
   12642:	f16ff0ef          	jal	ra,0x11d58
   12646:	06600713          	li	a4,102
   1264a:	7882                	ld	a7,32(sp)
   1264c:	20ed9b63          	bne	s11,a4,0x12862
   12650:	8cc6                	mv	s9,a7
   12652:	011d7363          	bgeu	s10,a7,0x12658
   12656:	8cea                	mv	s9,s10
   12658:	6709                	lui	a4,0x2
   1265a:	79f9                	lui	s3,0xffffe
   1265c:	0094                	addi	a3,sp,64
   1265e:	d1070793          	addi	a5,a4,-752 # 0x1d10
   12662:	31098c13          	addi	s8,s3,784 # 0xffffffffffffe310
   12666:	97b6                	add	a5,a5,a3
   12668:	9c3e                	add	s8,s8,a5
   1266a:	d1070793          	addi	a5,a4,-752
   1266e:	97b6                	add	a5,a5,a3
   12670:	8966                	mv	s2,s9
   12672:	009c0d93          	addi	s11,s8,9
   12676:	03000b13          	li	s6,48
   1267a:	99be                	add	s3,s3,a5
   1267c:	1328fe63          	bgeu	a7,s2,0x127b8
   12680:	67e2                	ld	a5,24(sp)
   12682:	1c078e63          	beqz	a5,0x1285e
   12686:	000185b7          	lui	a1,0x18
   1268a:	4605                	li	a2,1
   1268c:	c1858593          	addi	a1,a1,-1000 # 0x17c18
   12690:	8526                	mv	a0,s1
   12692:	eb0ff0ef          	jal	ra,0x11d42
   12696:	6789                	lui	a5,0x2
   12698:	79f9                	lui	s3,0xffffe
   1269a:	d1078793          	addi	a5,a5,-752 # 0x1d10
   1269e:	0098                	addi	a4,sp,64
   126a0:	31098993          	addi	s3,s3,784 # 0xffffffffffffe310
   126a4:	97ba                	add	a5,a5,a4
   126a6:	99be                	add	s3,s3,a5
   126a8:	00998b13          	addi	s6,s3,9
   126ac:	03000c13          	li	s8,48
   126b0:	4ca5                	li	s9,9
   126b2:	a2a5                	j	0x1281a
   126b4:	000186b7          	lui	a3,0x18
   126b8:	b986b683          	ld	a3,-1128(a3) # 0x17b98
   126bc:	bd3d                	j	0x124fa
   126be:	01be8dbb          	addw	s11,t4,s11
   126c2:	3b9ad737          	lui	a4,0x3b9ad
   126c6:	01b92023          	sw	s11,0(s2)
   126ca:	9ff70713          	addi	a4,a4,-1537 # 0x3b9ac9ff
   126ce:	00092683          	lw	a3,0(s2)
   126d2:	02d76363          	bltu	a4,a3,0x126f8
   126d6:	41a88333          	sub	t1,a7,s10
   126da:	000d2683          	lw	a3,0(s10)
   126de:	40235713          	srai	a4,t1,0x2
   126e2:	4325                	li	t1,9
   126e4:	02e3033b          	mulw	t1,t1,a4
   126e8:	4629                	li	a2,10
   126ea:	4729                	li	a4,10
   126ec:	e4e6ebe3          	bltu	a3,a4,0x12542
   126f0:	2305                	addiw	t1,t1,1
   126f2:	02e6073b          	mulw	a4,a2,a4
   126f6:	bfdd                	j	0x126ec
   126f8:	1971                	addi	s2,s2,-4
   126fa:	00092223          	sw	zero,4(s2)
   126fe:	01a97563          	bgeu	s2,s10,0x12708
   12702:	fe0d2e23          	sw	zero,-4(s10)
   12706:	1d71                	addi	s10,s10,-4
   12708:	00092683          	lw	a3,0(s2)
   1270c:	2685                	addiw	a3,a3,1
   1270e:	00d92023          	sw	a3,0(s2)
   12712:	bf75                	j	0x126ce
   12714:	1af1                	addi	s5,s5,-4
   12716:	bd15                	j	0x1254a
   12718:	3a79                	addiw	s4,s4,-2
   1271a:	347d                	addiw	s0,s0,-1
   1271c:	bda1                	j	0x12574
   1271e:	02e5073b          	mulw	a4,a0,a4
   12722:	2685                	addiw	a3,a3,1
   12724:	02e675bb          	remuw	a1,a2,a4
   12728:	d9fd                	beqz	a1,0x1271e
   1272a:	bdb9                	j	0x12588
   1272c:	4681                	li	a3,0
   1272e:	4729                	li	a4,10
   12730:	4529                	li	a0,10
   12732:	bfcd                	j	0x12724
   12734:	971a                	add	a4,a4,t1
   12736:	b5b5                	j	0x125a2
   12738:	6789                	lui	a5,0x2
   1273a:	f43a                	sd	a4,40(sp)
   1273c:	d1078793          	addi	a5,a5,-752 # 0x1d10
   12740:	0098                	addi	a4,sp,64
   12742:	97ba                	add	a5,a5,a4
   12744:	7cf9                	lui	s9,0xffffe
   12746:	41f3561b          	sraiw	a2,t1,0x1f
   1274a:	9cbe                	add	s9,s9,a5
   1274c:	00c34533          	xor	a0,t1,a2
   12750:	30cc8c93          	addi	s9,s9,780 # 0xffffffffffffe30c
   12754:	9d11                	subw	a0,a0,a2
   12756:	85e6                	mv	a1,s9
   12758:	f036                	sd	a3,32(sp)
   1275a:	e846                	sd	a7,16(sp)
   1275c:	e41a                	sd	t1,8(sp)
   1275e:	d7cff0ef          	jal	ra,0x11cda
   12762:	6322                	ld	t1,8(sp)
   12764:	68c2                	ld	a7,16(sp)
   12766:	7682                	ld	a3,32(sp)
   12768:	7722                	ld	a4,40(sp)
   1276a:	4605                	li	a2,1
   1276c:	03000e13          	li	t3,48
   12770:	40ac85b3          	sub	a1,s9,a0
   12774:	02b65e63          	bge	a2,a1,0x127b0
   12778:	02d00613          	li	a2,45
   1277c:	00034463          	bltz	t1,0x12784
   12780:	02b00613          	li	a2,43
   12784:	ffe50793          	addi	a5,a0,-2
   12788:	e43e                	sd	a5,8(sp)
   1278a:	6789                	lui	a5,0x2
   1278c:	fec50fa3          	sb	a2,-1(a0)
   12790:	d1078793          	addi	a5,a5,-752 # 0x1d10
   12794:	0090                	addi	a2,sp,64
   12796:	97b2                	add	a5,a5,a2
   12798:	ff450f23          	sb	s4,-2(a0)
   1279c:	7579                	lui	a0,0xffffe
   1279e:	953e                	add	a0,a0,a5
   127a0:	67a2                	ld	a5,8(sp)
   127a2:	30c50513          	addi	a0,a0,780 # 0xffffffffffffe30c
   127a6:	8d1d                	sub	a0,a0,a5
   127a8:	94a6cce3          	blt	a3,a0,0x12100
   127ac:	9d39                	addw	a0,a0,a4
   127ae:	bd89                	j	0x12600
   127b0:	157d                	addi	a0,a0,-1
   127b2:	01c50023          	sb	t3,0(a0)
   127b6:	bf6d                	j	0x12770
   127b8:	00096503          	lwu	a0,0(s2)
   127bc:	85ee                	mv	a1,s11
   127be:	e446                	sd	a7,8(sp)
   127c0:	d1aff0ef          	jal	ra,0x11cda
   127c4:	85aa                	mv	a1,a0
   127c6:	68a2                	ld	a7,8(sp)
   127c8:	01991c63          	bne	s2,s9,0x127e0
   127cc:	01b51c63          	bne	a0,s11,0x127e4
   127d0:	31698c23          	sb	s6,792(s3)
   127d4:	008c0593          	addi	a1,s8,8
   127d8:	a031                	j	0x127e4
   127da:	15fd                	addi	a1,a1,-1
   127dc:	01658023          	sb	s6,0(a1)
   127e0:	febc6de3          	bltu	s8,a1,0x127da
   127e4:	40bd8633          	sub	a2,s11,a1
   127e8:	8526                	mv	a0,s1
   127ea:	e446                	sd	a7,8(sp)
   127ec:	d56ff0ef          	jal	ra,0x11d42
   127f0:	0911                	addi	s2,s2,4
   127f2:	68a2                	ld	a7,8(sp)
   127f4:	b561                	j	0x1267c
   127f6:	00096503          	lwu	a0,0(s2)
   127fa:	85da                	mv	a1,s6
   127fc:	cdeff0ef          	jal	ra,0x11cda
   12800:	85aa                	mv	a1,a0
   12802:	04b9ea63          	bltu	s3,a1,0x12856
   12806:	0004061b          	sext.w	a2,s0
   1280a:	008cd363          	bge	s9,s0,0x12810
   1280e:	4625                	li	a2,9
   12810:	8526                	mv	a0,s1
   12812:	d30ff0ef          	jal	ra,0x11d42
   12816:	0911                	addi	s2,s2,4
   12818:	345d                	addiw	s0,s0,-9
   1281a:	01597463          	bgeu	s2,s5,0x12822
   1281e:	fc804ce3          	bgtz	s0,0x127f6
   12822:	4701                	li	a4,0
   12824:	46a5                	li	a3,9
   12826:	0094061b          	addiw	a2,s0,9
   1282a:	03000593          	li	a1,48
   1282e:	8526                	mv	a0,s1
   12830:	d28ff0ef          	jal	ra,0x11d58
   12834:	6602                	ld	a2,0(sp)
   12836:	6709                	lui	a4,0x2
   12838:	8526                	mv	a0,s1
   1283a:	00ebc733          	xor	a4,s7,a4
   1283e:	86d2                	mv	a3,s4
   12840:	02000593          	li	a1,32
   12844:	d14ff0ef          	jal	ra,0x11d58
   12848:	6782                	ld	a5,0(sp)
   1284a:	4542                	lw	a0,16(sp)
   1284c:	00fa5363          	bge	s4,a5,0x12852
   12850:	4502                	lw	a0,0(sp)
   12852:	2501                	sext.w	a0,a0
   12854:	b07d                	j	0x12102
   12856:	15fd                	addi	a1,a1,-1
   12858:	01858023          	sb	s8,0(a1)
   1285c:	b75d                	j	0x12802
   1285e:	4401                	li	s0,0
   12860:	bd1d                	j	0x12696
   12862:	015d6463          	bltu	s10,s5,0x1286a
   12866:	004d0a93          	addi	s5,s10,4
   1286a:	6689                	lui	a3,0x2
   1286c:	7779                	lui	a4,0xffffe
   1286e:	0090                	addi	a2,sp,64
   12870:	d1068793          	addi	a5,a3,-752 # 0x1d10
   12874:	97b2                	add	a5,a5,a2
   12876:	31070b13          	addi	s6,a4,784 # 0xffffffffffffe310
   1287a:	9b3e                	add	s6,s6,a5
   1287c:	d1068793          	addi	a5,a3,-752
   12880:	97b2                	add	a5,a5,a2
   12882:	97ba                	add	a5,a5,a4
   12884:	f03e                	sd	a5,32(sp)
   12886:	008b0793          	addi	a5,s6,8
   1288a:	89ea                	mv	s3,s10
   1288c:	009b0c13          	addi	s8,s6,9
   12890:	03000c93          	li	s9,48
   12894:	f43e                	sd	a5,40(sp)
   12896:	0159f463          	bgeu	s3,s5,0x1289e
   1289a:	02045b63          	bgez	s0,0x128d0
   1289e:	0124061b          	addiw	a2,s0,18
   128a2:	8526                	mv	a0,s1
   128a4:	4701                	li	a4,0
   128a6:	46c9                	li	a3,18
   128a8:	03000593          	li	a1,48
   128ac:	cacff0ef          	jal	ra,0x11d58
   128b0:	6789                	lui	a5,0x2
   128b2:	0098                	addi	a4,sp,64
   128b4:	d1078793          	addi	a5,a5,-752 # 0x1d10
   128b8:	97ba                	add	a5,a5,a4
   128ba:	7679                	lui	a2,0xffffe
   128bc:	963e                	add	a2,a2,a5
   128be:	67a2                	ld	a5,8(sp)
   128c0:	30c60613          	addi	a2,a2,780 # 0xffffffffffffe30c
   128c4:	8526                	mv	a0,s1
   128c6:	8e1d                	sub	a2,a2,a5
   128c8:	85be                	mv	a1,a5
   128ca:	c78ff0ef          	jal	ra,0x11d42
   128ce:	b79d                	j	0x12834
   128d0:	0009e503          	lwu	a0,0(s3)
   128d4:	85e2                	mv	a1,s8
   128d6:	c04ff0ef          	jal	ra,0x11cda
   128da:	85aa                	mv	a1,a0
   128dc:	01851663          	bne	a0,s8,0x128e8
   128e0:	7782                	ld	a5,32(sp)
   128e2:	75a2                	ld	a1,40(sp)
   128e4:	31978c23          	sb	s9,792(a5)
   128e8:	0004079b          	sext.w	a5,s0
   128ec:	ec3e                	sd	a5,24(sp)
   128ee:	8dae                	mv	s11,a1
   128f0:	03a99963          	bne	s3,s10,0x12922
   128f4:	4605                	li	a2,1
   128f6:	8526                	mv	a0,s1
   128f8:	00158d93          	addi	s11,a1,1
   128fc:	c46ff0ef          	jal	ra,0x11d42
   12900:	0004079b          	sext.w	a5,s0
   12904:	00f966b3          	or	a3,s2,a5
   12908:	ce99                	beqz	a3,0x12926
   1290a:	000187b7          	lui	a5,0x18
   1290e:	4605                	li	a2,1
   12910:	c1878593          	addi	a1,a5,-1000 # 0x17c18
   12914:	8526                	mv	a0,s1
   12916:	c2cff0ef          	jal	ra,0x11d42
   1291a:	a031                	j	0x12926
   1291c:	1dfd                	addi	s11,s11,-1
   1291e:	019d8023          	sb	s9,0(s11)
   12922:	ffbb6de3          	bltu	s6,s11,0x1291c
   12926:	41bc06b3          	sub	a3,s8,s11
   1292a:	8622                	mv	a2,s0
   1292c:	0086d363          	bge	a3,s0,0x12932
   12930:	8636                	mv	a2,a3
   12932:	85ee                	mv	a1,s11
   12934:	8526                	mv	a0,s1
   12936:	f836                	sd	a3,48(sp)
   12938:	c0aff0ef          	jal	ra,0x11d42
   1293c:	67e2                	ld	a5,24(sp)
   1293e:	76c2                	ld	a3,48(sp)
   12940:	0991                	addi	s3,s3,4
   12942:	40d7843b          	subw	s0,a5,a3
   12946:	bf81                	j	0x12896
   12948:	712d                	addi	sp,sp,-288
   1294a:	e5e6                	sd	s9,200(sp)
   1294c:	6ce1                	lui	s9,0x18
   1294e:	970c8793          	addi	a5,s9,-1680 # 0x17970
   12952:	ec3e                	sd	a5,24(sp)
   12954:	67e1                	lui	a5,0x18
   12956:	fdce                	sd	s3,248(sp)
   12958:	87078793          	addi	a5,a5,-1936 # 0x17870
   1295c:	000189b7          	lui	s3,0x18
   12960:	ea22                	sd	s0,272(sp)
   12962:	e24a                	sd	s2,256(sp)
   12964:	f5d6                	sd	s5,232(sp)
   12966:	f1da                	sd	s6,224(sp)
   12968:	edde                	sd	s7,216(sp)
   1296a:	e1ea                	sd	s10,192(sp)
   1296c:	ee06                	sd	ra,280(sp)
   1296e:	e626                	sd	s1,264(sp)
   12970:	f9d2                	sd	s4,240(sp)
   12972:	e9e2                	sd	s8,208(sp)
   12974:	fd6e                	sd	s11,184(sp)
   12976:	842a                	mv	s0,a0
   12978:	8ab2                	mv	s5,a2
   1297a:	e436                	sd	a3,8(sp)
   1297c:	8bba                	mv	s7,a4
   1297e:	e8ae                	sd	a1,80(sp)
   12980:	4d01                	li	s10,0
   12982:	4901                	li	s2,0
   12984:	4b01                	li	s6,0
   12986:	c2098993          	addi	s3,s3,-992 # 0x17c20
   1298a:	f03e                	sd	a5,32(sp)
   1298c:	6c46                	ld	s8,80(sp)
   1298e:	01a9093b          	addw	s2,s2,s10
   12992:	8dca                	mv	s11,s2
   12994:	000c4783          	lbu	a5,0(s8)
   12998:	5e078c63          	beqz	a5,0x12f90
   1299c:	02500713          	li	a4,37
   129a0:	6346                	ld	t1,80(sp)
   129a2:	00034783          	lbu	a5,0(t1)
   129a6:	c399                	beqz	a5,0x129ac
   129a8:	00e79563          	bne	a5,a4,0x129b2
   129ac:	02500713          	li	a4,37
   129b0:	a039                	j	0x129be
   129b2:	0305                	addi	t1,t1,1
   129b4:	e89a                	sd	t1,80(sp)
   129b6:	b7ed                	j	0x129a0
   129b8:	0789                	addi	a5,a5,2
   129ba:	0305                	addi	t1,t1,1
   129bc:	e8be                	sd	a5,80(sp)
   129be:	67c6                	ld	a5,80(sp)
   129c0:	0007c683          	lbu	a3,0(a5)
   129c4:	00e69663          	bne	a3,a4,0x129d0
   129c8:	0017c683          	lbu	a3,1(a5)
   129cc:	fee686e3          	beq	a3,a4,0x129b8
   129d0:	80000a37          	lui	s4,0x80000
   129d4:	fffa4a13          	not	s4,s4
   129d8:	41ba07bb          	subw	a5,s4,s11
   129dc:	41830333          	sub	t1,t1,s8
   129e0:	e83e                	sd	a5,16(sp)
   129e2:	5467ca63          	blt	a5,t1,0x12f36
   129e6:	00030d1b          	sext.w	s10,t1
   129ea:	c411                	beqz	s0,0x129f6
   129ec:	866a                	mv	a2,s10
   129ee:	85e2                	mv	a1,s8
   129f0:	8522                	mv	a0,s0
   129f2:	b50ff0ef          	jal	ra,0x11d42
   129f6:	520d1d63          	bnez	s10,0x12f30
   129fa:	67c6                	ld	a5,80(sp)
   129fc:	4725                	li	a4,9
   129fe:	0017c683          	lbu	a3,1(a5)
   12a02:	fd06869b          	addiw	a3,a3,-48
   12a06:	12d76d63          	bltu	a4,a3,0x12b40
   12a0a:	0027c603          	lbu	a2,2(a5)
   12a0e:	02400713          	li	a4,36
   12a12:	12e61763          	bne	a2,a4,0x12b40
   12a16:	078d                	addi	a5,a5,3
   12a18:	e8be                	sd	a5,80(sp)
   12a1a:	4b05                	li	s6,1
   12a1c:	654d                	lui	a0,0x13
   12a1e:	4c81                	li	s9,0
   12a20:	48fd                	li	a7,31
   12a22:	8895051b          	addiw	a0,a0,-1911
   12a26:	4e85                	li	t4,1
   12a28:	6746                	ld	a4,80(sp)
   12a2a:	00074803          	lbu	a6,0(a4)
   12a2e:	fe08061b          	addiw	a2,a6,-32
   12a32:	00c8e763          	bltu	a7,a2,0x12a40
   12a36:	00c555bb          	srlw	a1,a0,a2
   12a3a:	8985                	andi	a1,a1,1
   12a3c:	10059663          	bnez	a1,0x12b48
   12a40:	02a00613          	li	a2,42
   12a44:	12c81f63          	bne	a6,a2,0x12b82
   12a48:	00174603          	lbu	a2,1(a4)
   12a4c:	45a5                	li	a1,9
   12a4e:	fd06051b          	addiw	a0,a2,-48
   12a52:	10a5e463          	bltu	a1,a0,0x12b5a
   12a56:	00274503          	lbu	a0,2(a4)
   12a5a:	02400593          	li	a1,36
   12a5e:	0eb51e63          	bne	a0,a1,0x12b5a
   12a62:	060a                	slli	a2,a2,0x2
   12a64:	965e                	add	a2,a2,s7
   12a66:	45a9                	li	a1,10
   12a68:	f4b62023          	sw	a1,-192(a2)
   12a6c:	00174603          	lbu	a2,1(a4)
   12a70:	67a2                	ld	a5,8(sp)
   12a72:	070d                	addi	a4,a4,3
   12a74:	0612                	slli	a2,a2,0x4
   12a76:	963e                	add	a2,a2,a5
   12a78:	d0062483          	lw	s1,-768(a2)
   12a7c:	e8ba                	sd	a4,80(sp)
   12a7e:	4b05                	li	s6,1
   12a80:	0004d763          	bgez	s1,0x12a8e
   12a84:	6709                	lui	a4,0x2
   12a86:	00ececb3          	or	s9,s9,a4
   12a8a:	409004bb          	negw	s1,s1
   12a8e:	6746                	ld	a4,80(sp)
   12a90:	02e00613          	li	a2,46
   12a94:	00074583          	lbu	a1,0(a4) # 0x2000
   12a98:	12c59663          	bne	a1,a2,0x12bc4
   12a9c:	00174583          	lbu	a1,1(a4)
   12aa0:	02a00613          	li	a2,42
   12aa4:	10c59663          	bne	a1,a2,0x12bb0
   12aa8:	00274603          	lbu	a2,2(a4)
   12aac:	45a5                	li	a1,9
   12aae:	fd06051b          	addiw	a0,a2,-48
   12ab2:	0ea5e163          	bltu	a1,a0,0x12b94
   12ab6:	00374503          	lbu	a0,3(a4)
   12aba:	02400593          	li	a1,36
   12abe:	0cb51b63          	bne	a0,a1,0x12b94
   12ac2:	060a                	slli	a2,a2,0x2
   12ac4:	965e                	add	a2,a2,s7
   12ac6:	45a9                	li	a1,10
   12ac8:	f4b62023          	sw	a1,-192(a2)
   12acc:	00274603          	lbu	a2,2(a4)
   12ad0:	67a2                	ld	a5,8(sp)
   12ad2:	0711                	addi	a4,a4,4
   12ad4:	0612                	slli	a2,a2,0x4
   12ad6:	963e                	add	a2,a2,a5
   12ad8:	d0062a03          	lw	s4,-768(a2)
   12adc:	fffa4e93          	not	t4,s4
   12ae0:	e8ba                	sd	a4,80(sp)
   12ae2:	01fede9b          	srliw	t4,t4,0x1f
   12ae6:	4f81                	li	t6,0
   12ae8:	03900813          	li	a6,57
   12aec:	03a00513          	li	a0,58
   12af0:	461d                	li	a2,7
   12af2:	6746                	ld	a4,80(sp)
   12af4:	00074583          	lbu	a1,0(a4)
   12af8:	fbf5859b          	addiw	a1,a1,-65
   12afc:	06b86163          	bltu	a6,a1,0x12b5e
   12b00:	00170593          	addi	a1,a4,1
   12b04:	e8ae                	sd	a1,80(sp)
   12b06:	00074703          	lbu	a4,0(a4)
   12b0a:	020f9f13          	slli	t5,t6,0x20
   12b0e:	020f5f13          	srli	t5,t5,0x20
   12b12:	fbf7059b          	addiw	a1,a4,-65
   12b16:	02af0733          	mul	a4,t5,a0
   12b1a:	67e2                	ld	a5,24(sp)
   12b1c:	973e                	add	a4,a4,a5
   12b1e:	972e                	add	a4,a4,a1
   12b20:	01074283          	lbu	t0,16(a4)
   12b24:	0002859b          	sext.w	a1,t0
   12b28:	fff5871b          	addiw	a4,a1,-1
   12b2c:	08e67f63          	bgeu	a2,a4,0x12bca
   12b30:	c59d                	beqz	a1,0x12b5e
   12b32:	476d                	li	a4,27
   12b34:	08e59d63          	bne	a1,a4,0x12bce
   12b38:	0206d363          	bgez	a3,0x12b5e
   12b3c:	e465                	bnez	s0,0x12c24
   12b3e:	b5b9                	j	0x1298c
   12b40:	0785                	addi	a5,a5,1
   12b42:	e8be                	sd	a5,80(sp)
   12b44:	56fd                	li	a3,-1
   12b46:	bdd9                	j	0x12a1c
   12b48:	00ce963b          	sllw	a2,t4,a2
   12b4c:	00cce7b3          	or	a5,s9,a2
   12b50:	0705                	addi	a4,a4,1
   12b52:	00078c9b          	sext.w	s9,a5
   12b56:	e8ba                	sd	a4,80(sp)
   12b58:	bdc1                	j	0x12a28
   12b5a:	000b0863          	beqz	s6,0x12b6a
   12b5e:	998fe0ef          	jal	ra,0x10cf6
   12b62:	47d9                	li	a5,22
   12b64:	c11c                	sw	a5,0(a0)
   12b66:	597d                	li	s2,-1
   12b68:	a061                	j	0x12bf0
   12b6a:	4481                	li	s1,0
   12b6c:	c801                	beqz	s0,0x12b7c
   12b6e:	000ab603          	ld	a2,0(s5)
   12b72:	4204                	lw	s1,0(a2)
   12b74:	00860593          	addi	a1,a2,8
   12b78:	00bab023          	sd	a1,0(s5)
   12b7c:	0705                	addi	a4,a4,1
   12b7e:	e8ba                	sd	a4,80(sp)
   12b80:	b701                	j	0x12a80
   12b82:	0888                	addi	a0,sp,80
   12b84:	f436                	sd	a3,40(sp)
   12b86:	970ff0ef          	jal	ra,0x11cf6
   12b8a:	84aa                	mv	s1,a0
   12b8c:	76a2                	ld	a3,40(sp)
   12b8e:	f00550e3          	bgez	a0,0x12a8e
   12b92:	a655                	j	0x12f36
   12b94:	fc0b15e3          	bnez	s6,0x12b5e
   12b98:	4a01                	li	s4,0
   12b9a:	c809                	beqz	s0,0x12bac
   12b9c:	000ab603          	ld	a2,0(s5)
   12ba0:	00062a03          	lw	s4,0(a2)
   12ba4:	00860593          	addi	a1,a2,8
   12ba8:	00bab023          	sd	a1,0(s5)
   12bac:	0709                	addi	a4,a4,2
   12bae:	b73d                	j	0x12adc
   12bb0:	0705                	addi	a4,a4,1
   12bb2:	0888                	addi	a0,sp,80
   12bb4:	f436                	sd	a3,40(sp)
   12bb6:	e8ba                	sd	a4,80(sp)
   12bb8:	93eff0ef          	jal	ra,0x11cf6
   12bbc:	8a2a                	mv	s4,a0
   12bbe:	4e85                	li	t4,1
   12bc0:	76a2                	ld	a3,40(sp)
   12bc2:	b715                	j	0x12ae6
   12bc4:	4e81                	li	t4,0
   12bc6:	5a7d                	li	s4,-1
   12bc8:	bf39                	j	0x12ae6
   12bca:	8fae                	mv	t6,a1
   12bcc:	b71d                	j	0x12af2
   12bce:	0006cf63          	bltz	a3,0x12bec
   12bd2:	67a2                	ld	a5,8(sp)
   12bd4:	00269713          	slli	a4,a3,0x2
   12bd8:	0692                	slli	a3,a3,0x4
   12bda:	975e                	add	a4,a4,s7
   12bdc:	96be                	add	a3,a3,a5
   12bde:	00572023          	sw	t0,0(a4)
   12be2:	6298                	ld	a4,0(a3)
   12be4:	f0ba                	sd	a4,96(sp)
   12be6:	6698                	ld	a4,8(a3)
   12be8:	f4ba                	sd	a4,104(sp)
   12bea:	bf89                	j	0x12b3c
   12bec:	e015                	bnez	s0,0x12c10
   12bee:	4901                	li	s2,0
   12bf0:	60f2                	ld	ra,280(sp)
   12bf2:	6452                	ld	s0,272(sp)
   12bf4:	854a                	mv	a0,s2
   12bf6:	64b2                	ld	s1,264(sp)
   12bf8:	6912                	ld	s2,256(sp)
   12bfa:	79ee                	ld	s3,248(sp)
   12bfc:	7a4e                	ld	s4,240(sp)
   12bfe:	7aae                	ld	s5,232(sp)
   12c00:	7b0e                	ld	s6,224(sp)
   12c02:	6bee                	ld	s7,216(sp)
   12c04:	6c4e                	ld	s8,208(sp)
   12c06:	6cae                	ld	s9,200(sp)
   12c08:	6d0e                	ld	s10,192(sp)
   12c0a:	7dea                	ld	s11,184(sp)
   12c0c:	6115                	addi	sp,sp,288
   12c0e:	8082                	ret
   12c10:	8656                	mv	a2,s5
   12c12:	1088                	addi	a0,sp,96
   12c14:	fc7a                	sd	t5,56(sp)
   12c16:	f87e                	sd	t6,48(sp)
   12c18:	f476                	sd	t4,40(sp)
   12c1a:	81aff0ef          	jal	ra,0x11c34
   12c1e:	7ea2                	ld	t4,40(sp)
   12c20:	7fc2                	ld	t6,48(sp)
   12c22:	7f62                	ld	t5,56(sp)
   12c24:	6746                	ld	a4,80(sp)
   12c26:	fff74703          	lbu	a4,-1(a4)
   12c2a:	0007081b          	sext.w	a6,a4
   12c2e:	000f8863          	beqz	t6,0x12c3e
   12c32:	8b3d                	andi	a4,a4,15
   12c34:	468d                	li	a3,3
   12c36:	00d71463          	bne	a4,a3,0x12c3e
   12c3a:	0df87813          	andi	a6,a6,223
   12c3e:	032c9793          	slli	a5,s9,0x32
   12c42:	0007d663          	bgez	a5,0x12c4e
   12c46:	7741                	lui	a4,0xffff0
   12c48:	177d                	addi	a4,a4,-1
   12c4a:	00ecfcb3          	and	s9,s9,a4
   12c4e:	fbf8071b          	addiw	a4,a6,-65
   12c52:	0007061b          	sext.w	a2,a4
   12c56:	03700693          	li	a3,55
   12c5a:	32c6e563          	bltu	a3,a2,0x12f84
   12c5e:	7782                	ld	a5,32(sp)
   12c60:	1702                	slli	a4,a4,0x20
   12c62:	8379                	srli	a4,a4,0x1e
   12c64:	973e                	add	a4,a4,a5
   12c66:	4318                	lw	a4,0(a4)
   12c68:	8702                	jr	a4
   12c6a:	479d                	li	a5,7
   12c6c:	2df7e263          	bltu	a5,t6,0x12f30
   12c70:	67e1                	lui	a5,0x18
   12c72:	95078793          	addi	a5,a5,-1712 # 0x17950
   12c76:	0f0a                	slli	t5,t5,0x2
   12c78:	9f3e                	add	t5,t5,a5
   12c7a:	000f2783          	lw	a5,0(t5)
   12c7e:	8782                	jr	a5
   12c80:	7786                	ld	a5,96(sp)
   12c82:	01b7a023          	sw	s11,0(a5)
   12c86:	b319                	j	0x1298c
   12c88:	7786                	ld	a5,96(sp)
   12c8a:	01279023          	sh	s2,0(a5)
   12c8e:	b9fd                	j	0x1298c
   12c90:	7786                	ld	a5,96(sp)
   12c92:	01278023          	sb	s2,0(a5)
   12c96:	b9dd                	j	0x1298c
   12c98:	7786                	ld	a5,96(sp)
   12c9a:	0127b023          	sd	s2,0(a5)
   12c9e:	b1fd                	j	0x1298c
   12ca0:	000a089b          	sext.w	a7,s4
   12ca4:	46c1                	li	a3,16
   12ca6:	8752                	mv	a4,s4
   12ca8:	00d8f363          	bgeu	a7,a3,0x12cae
   12cac:	4741                	li	a4,16
   12cae:	00070a1b          	sext.w	s4,a4
   12cb2:	008cec93          	ori	s9,s9,8
   12cb6:	07800813          	li	a6,120
   12cba:	7586                	ld	a1,96(sp)
   12cbc:	02087693          	andi	a3,a6,32
   12cc0:	2681                	sext.w	a3,a3
   12cc2:	872e                	mv	a4,a1
   12cc4:	0af10c13          	addi	s8,sp,175
   12cc8:	e705                	bnez	a4,0x12cf0
   12cca:	8dce                	mv	s11,s3
   12ccc:	c989                	beqz	a1,0x12cde
   12cce:	008cf713          	andi	a4,s9,8
   12cd2:	c711                	beqz	a4,0x12cde
   12cd4:	00485813          	srli	a6,a6,0x4
   12cd8:	01098db3          	add	s11,s3,a6
   12cdc:	4d09                	li	s10,2
   12cde:	0a0e8563          	beqz	t4,0x12d88
   12ce2:	240a4a63          	bltz	s4,0x12f36
   12ce6:	7741                	lui	a4,0xffff0
   12ce8:	177d                	addi	a4,a4,-1
   12cea:	00ecfcb3          	and	s9,s9,a4
   12cee:	a879                	j	0x12d8c
   12cf0:	67e2                	ld	a5,24(sp)
   12cf2:	00f77613          	andi	a2,a4,15
   12cf6:	1c7d                	addi	s8,s8,-1
   12cf8:	963e                	add	a2,a2,a5
   12cfa:	00064603          	lbu	a2,0(a2)
   12cfe:	8311                	srli	a4,a4,0x4
   12d00:	8e55                	or	a2,a2,a3
   12d02:	00cc0023          	sb	a2,0(s8)
   12d06:	b7c9                	j	0x12cc8
   12d08:	7706                	ld	a4,96(sp)
   12d0a:	0af10c13          	addi	s8,sp,175
   12d0e:	86e2                	mv	a3,s8
   12d10:	ef19                	bnez	a4,0x12d2e
   12d12:	008cf713          	andi	a4,s9,8
   12d16:	8dce                	mv	s11,s3
   12d18:	d379                	beqz	a4,0x12cde
   12d1a:	41868733          	sub	a4,a3,s8
   12d1e:	fd4740e3          	blt	a4,s4,0x12cde
   12d22:	00018db7          	lui	s11,0x18
   12d26:	4d05                	li	s10,1
   12d28:	c25d8d93          	addi	s11,s11,-987 # 0x17c25
   12d2c:	bf4d                	j	0x12cde
   12d2e:	00777613          	andi	a2,a4,7
   12d32:	1c7d                	addi	s8,s8,-1
   12d34:	0306061b          	addiw	a2,a2,48
   12d38:	00cc0023          	sb	a2,0(s8)
   12d3c:	830d                	srli	a4,a4,0x3
   12d3e:	bfc9                	j	0x12d10
   12d40:	7706                	ld	a4,96(sp)
   12d42:	02075063          	bgez	a4,0x12d62
   12d46:	40e00733          	neg	a4,a4
   12d4a:	f0ba                	sd	a4,96(sp)
   12d4c:	4d05                	li	s10,1
   12d4e:	8dce                	mv	s11,s3
   12d50:	7506                	ld	a0,96(sp)
   12d52:	0af10593          	addi	a1,sp,175
   12d56:	f476                	sd	t4,40(sp)
   12d58:	f83fe0ef          	jal	ra,0x11cda
   12d5c:	8c2a                	mv	s8,a0
   12d5e:	7ea2                	ld	t4,40(sp)
   12d60:	bfbd                	j	0x12cde
   12d62:	034c9793          	slli	a5,s9,0x34
   12d66:	0007cb63          	bltz	a5,0x12d7c
   12d6a:	001cf713          	andi	a4,s9,1
   12d6e:	d365                	beqz	a4,0x12d4e
   12d70:	00018db7          	lui	s11,0x18
   12d74:	4d05                	li	s10,1
   12d76:	c22d8d93          	addi	s11,s11,-990 # 0x17c22
   12d7a:	bfd9                	j	0x12d50
   12d7c:	00018db7          	lui	s11,0x18
   12d80:	4d05                	li	s10,1
   12d82:	c21d8d93          	addi	s11,s11,-991 # 0x17c21
   12d86:	b7e9                	j	0x12d50
   12d88:	f40a5fe3          	bgez	s4,0x12ce6
   12d8c:	7686                	ld	a3,96(sp)
   12d8e:	0af10613          	addi	a2,sp,175
   12d92:	e299                	bnez	a3,0x12d98
   12d94:	1e0a0c63          	beqz	s4,0x12f8c
   12d98:	41860733          	sub	a4,a2,s8
   12d9c:	0016b693          	seqz	a3,a3
   12da0:	9736                	add	a4,a4,a3
   12da2:	01475363          	bge	a4,s4,0x12da8
   12da6:	8752                	mv	a4,s4
   12da8:	00070a1b          	sext.w	s4,a4
   12dac:	41860833          	sub	a6,a2,s8
   12db0:	010a5463          	bge	s4,a6,0x12db8
   12db4:	00080a1b          	sext.w	s4,a6
   12db8:	80000737          	lui	a4,0x80000
   12dbc:	fff74713          	not	a4,a4
   12dc0:	41a7073b          	subw	a4,a4,s10
   12dc4:	17474963          	blt	a4,s4,0x12f36
   12dc8:	01aa0ebb          	addw	t4,s4,s10
   12dcc:	8776                	mv	a4,t4
   12dce:	009ed363          	bge	t4,s1,0x12dd4
   12dd2:	8726                	mv	a4,s1
   12dd4:	67c2                	ld	a5,16(sp)
   12dd6:	f842                	sd	a6,48(sp)
   12dd8:	0007049b          	sext.w	s1,a4
   12ddc:	1497cd63          	blt	a5,s1,0x12f36
   12de0:	86f6                	mv	a3,t4
   12de2:	8766                	mv	a4,s9
   12de4:	8626                	mv	a2,s1
   12de6:	02000593          	li	a1,32
   12dea:	8522                	mv	a0,s0
   12dec:	e876                	sd	t4,16(sp)
   12dee:	f6bfe0ef          	jal	ra,0x11d58
   12df2:	866a                	mv	a2,s10
   12df4:	85ee                	mv	a1,s11
   12df6:	8522                	mv	a0,s0
   12df8:	f4bfe0ef          	jal	ra,0x11d42
   12dfc:	6ec2                	ld	t4,16(sp)
   12dfe:	6741                	lui	a4,0x10
   12e00:	00ecc733          	xor	a4,s9,a4
   12e04:	86f6                	mv	a3,t4
   12e06:	8626                	mv	a2,s1
   12e08:	03000593          	li	a1,48
   12e0c:	8522                	mv	a0,s0
   12e0e:	f476                	sd	t4,40(sp)
   12e10:	f49fe0ef          	jal	ra,0x11d58
   12e14:	7842                	ld	a6,48(sp)
   12e16:	4701                	li	a4,0
   12e18:	8652                	mv	a2,s4
   12e1a:	0008069b          	sext.w	a3,a6
   12e1e:	03000593          	li	a1,48
   12e22:	8522                	mv	a0,s0
   12e24:	e842                	sd	a6,16(sp)
   12e26:	f33fe0ef          	jal	ra,0x11d58
   12e2a:	6842                	ld	a6,16(sp)
   12e2c:	85e2                	mv	a1,s8
   12e2e:	8522                	mv	a0,s0
   12e30:	8642                	mv	a2,a6
   12e32:	f11fe0ef          	jal	ra,0x11d42
   12e36:	7ea2                	ld	t4,40(sp)
   12e38:	6709                	lui	a4,0x2
   12e3a:	00ecc733          	xor	a4,s9,a4
   12e3e:	86f6                	mv	a3,t4
   12e40:	8626                	mv	a2,s1
   12e42:	02000593          	li	a1,32
   12e46:	8522                	mv	a0,s0
   12e48:	f11fe0ef          	jal	ra,0x11d58
   12e4c:	8d26                	mv	s10,s1
   12e4e:	be3d                	j	0x1298c
   12e50:	7706                	ld	a4,96(sp)
   12e52:	8dce                	mv	s11,s3
   12e54:	4a05                	li	s4,1
   12e56:	0ae10723          	sb	a4,174(sp)
   12e5a:	7741                	lui	a4,0xffff0
   12e5c:	177d                	addi	a4,a4,-1
   12e5e:	00ecfcb3          	and	s9,s9,a4
   12e62:	0af10613          	addi	a2,sp,175
   12e66:	0ae10c13          	addi	s8,sp,174
   12e6a:	b789                	j	0x12dac
   12e6c:	e8bfd0ef          	jal	ra,0x10cf6
   12e70:	4108                	lw	a0,0(a0)
   12e72:	ec3fd0ef          	jal	ra,0x10d34
   12e76:	8c2a                	mv	s8,a0
   12e78:	85d2                	mv	a1,s4
   12e7a:	000a5663          	bgez	s4,0x12e86
   12e7e:	800005b7          	lui	a1,0x80000
   12e82:	fff5c593          	not	a1,a1
   12e86:	8562                	mv	a0,s8
   12e88:	05f000ef          	jal	ra,0x136e6
   12e8c:	00ac0633          	add	a2,s8,a0
   12e90:	000a5563          	bgez	s4,0x12e9a
   12e94:	00064703          	lbu	a4,0(a2)
   12e98:	ef59                	bnez	a4,0x12f36
   12e9a:	7741                	lui	a4,0xffff0
   12e9c:	177d                	addi	a4,a4,-1
   12e9e:	00050a1b          	sext.w	s4,a0
   12ea2:	00ecfcb3          	and	s9,s9,a4
   12ea6:	8dce                	mv	s11,s3
   12ea8:	b711                	j	0x12dac
   12eaa:	7c06                	ld	s8,96(sp)
   12eac:	fc0c16e3          	bnez	s8,0x12e78
   12eb0:	00018e37          	lui	t3,0x18
   12eb4:	c30e0c13          	addi	s8,t3,-976 # 0x17c30
   12eb8:	b7c1                	j	0x12e78
   12eba:	7706                	ld	a4,96(sp)
   12ebc:	ce82                	sw	zero,92(sp)
   12ebe:	5a7d                	li	s4,-1
   12ec0:	ccba                	sw	a4,88(sp)
   12ec2:	08b8                	addi	a4,sp,88
   12ec4:	f0ba                	sd	a4,96(sp)
   12ec6:	7d86                	ld	s11,96(sp)
   12ec8:	4d01                	li	s10,0
   12eca:	014d7f63          	bgeu	s10,s4,0x12ee8
   12ece:	000da583          	lw	a1,0(s11)
   12ed2:	c999                	beqz	a1,0x12ee8
   12ed4:	00a8                	addi	a0,sp,72
   12ed6:	0d91                	addi	s11,s11,4
   12ed8:	456010ef          	jal	ra,0x1432e
   12edc:	c80545e3          	bltz	a0,0x12b66
   12ee0:	41aa0733          	sub	a4,s4,s10
   12ee4:	04a77e63          	bgeu	a4,a0,0x12f40
   12ee8:	80000737          	lui	a4,0x80000
   12eec:	fff74713          	not	a4,a4
   12ef0:	05a76363          	bltu	a4,s10,0x12f36
   12ef4:	000d0d9b          	sext.w	s11,s10
   12ef8:	8766                	mv	a4,s9
   12efa:	86ee                	mv	a3,s11
   12efc:	8626                	mv	a2,s1
   12efe:	02000593          	li	a1,32
   12f02:	8522                	mv	a0,s0
   12f04:	e55fe0ef          	jal	ra,0x11d58
   12f08:	7c06                	ld	s8,96(sp)
   12f0a:	4a01                	li	s4,0
   12f0c:	03aa6c63          	bltu	s4,s10,0x12f44
   12f10:	6709                	lui	a4,0x2
   12f12:	00ecc733          	xor	a4,s9,a4
   12f16:	86ee                	mv	a3,s11
   12f18:	8626                	mv	a2,s1
   12f1a:	02000593          	li	a1,32
   12f1e:	8522                	mv	a0,s0
   12f20:	e39fe0ef          	jal	ra,0x11d58
   12f24:	8326                	mv	t1,s1
   12f26:	01b4d363          	bge	s1,s11,0x12f2c
   12f2a:	836e                	mv	t1,s11
   12f2c:	00030d1b          	sext.w	s10,t1
   12f30:	67c2                	ld	a5,16(sp)
   12f32:	a5a7dde3          	bge	a5,s10,0x1298c
   12f36:	dc1fd0ef          	jal	ra,0x10cf6
   12f3a:	04b00793          	li	a5,75
   12f3e:	b11d                	j	0x12b64
   12f40:	9d2a                	add	s10,s10,a0
   12f42:	b761                	j	0x12eca
   12f44:	000c2583          	lw	a1,0(s8)
   12f48:	d5e1                	beqz	a1,0x12f10
   12f4a:	00a8                	addi	a0,sp,72
   12f4c:	3e2010ef          	jal	ra,0x1432e
   12f50:	9a2a                	add	s4,s4,a0
   12f52:	0c11                	addi	s8,s8,4
   12f54:	862a                	mv	a2,a0
   12f56:	fb4d6de3          	bltu	s10,s4,0x12f10
   12f5a:	00ac                	addi	a1,sp,72
   12f5c:	8522                	mv	a0,s0
   12f5e:	de5fe0ef          	jal	ra,0x11d42
   12f62:	b76d                	j	0x12f0c
   12f64:	000e8463          	beqz	t4,0x12f6c
   12f68:	fc0a47e3          	bltz	s4,0x12f36
   12f6c:	7586                	ld	a1,96(sp)
   12f6e:	7626                	ld	a2,104(sp)
   12f70:	87e6                	mv	a5,s9
   12f72:	8752                	mv	a4,s4
   12f74:	86a6                	mv	a3,s1
   12f76:	8522                	mv	a0,s0
   12f78:	e55fe0ef          	jal	ra,0x11dcc
   12f7c:	8d2a                	mv	s10,a0
   12f7e:	fa0559e3          	bgez	a0,0x12f30
   12f82:	bf55                	j	0x12f36
   12f84:	8dce                	mv	s11,s3
   12f86:	0af10613          	addi	a2,sp,175
   12f8a:	b50d                	j	0x12dac
   12f8c:	8c32                	mv	s8,a2
   12f8e:	bd39                	j	0x12dac
   12f90:	c60410e3          	bnez	s0,0x12bf0
   12f94:	c40b0de3          	beqz	s6,0x12bee
   12f98:	4405                	li	s0,1
   12f9a:	44a9                	li	s1,10
   12f9c:	00241793          	slli	a5,s0,0x2
   12fa0:	97de                	add	a5,a5,s7
   12fa2:	438c                	lw	a1,0(a5)
   12fa4:	ed81                	bnez	a1,0x12fbc
   12fa6:	4729                	li	a4,10
   12fa8:	00241793          	slli	a5,s0,0x2
   12fac:	97de                	add	a5,a5,s7
   12fae:	439c                	lw	a5,0(a5)
   12fb0:	ba0797e3          	bnez	a5,0x12b5e
   12fb4:	0405                	addi	s0,s0,1
   12fb6:	fee419e3          	bne	s0,a4,0x12fa8
   12fba:	a819                	j	0x12fd0
   12fbc:	67a2                	ld	a5,8(sp)
   12fbe:	00441513          	slli	a0,s0,0x4
   12fc2:	8656                	mv	a2,s5
   12fc4:	953e                	add	a0,a0,a5
   12fc6:	0405                	addi	s0,s0,1
   12fc8:	c6dfe0ef          	jal	ra,0x11c34
   12fcc:	fc9418e3          	bne	s0,s1,0x12f9c
   12fd0:	4905                	li	s2,1
   12fd2:	b939                	j	0x12bf0
   12fd4:	710d                	addi	sp,sp,-352
   12fd6:	e2ca                	sd	s2,320(sp)
   12fd8:	08010913          	addi	s2,sp,128
   12fdc:	eaa2                	sd	s0,336(sp)
   12fde:	e032                	sd	a2,0(sp)
   12fe0:	842a                	mv	s0,a0
   12fe2:	0038                	addi	a4,sp,8
   12fe4:	86ca                	mv	a3,s2
   12fe6:	860a                	mv	a2,sp
   12fe8:	4501                	li	a0,0
   12fea:	f656                	sd	s5,296(sp)
   12fec:	ee86                	sd	ra,344(sp)
   12fee:	e6a6                	sd	s1,328(sp)
   12ff0:	fe4e                	sd	s3,312(sp)
   12ff2:	fa52                	sd	s4,304(sp)
   12ff4:	8aae                	mv	s5,a1
   12ff6:	e402                	sd	zero,8(sp)
   12ff8:	e802                	sd	zero,16(sp)
   12ffa:	ec02                	sd	zero,24(sp)
   12ffc:	f002                	sd	zero,32(sp)
   12ffe:	f402                	sd	zero,40(sp)
   13000:	949ff0ef          	jal	ra,0x12948
   13004:	0a054863          	bltz	a0,0x130b4
   13008:	08c42783          	lw	a5,140(s0)
   1300c:	4a01                	li	s4,0
   1300e:	02079713          	slli	a4,a5,0x20
   13012:	00074663          	bltz	a4,0x1301e
   13016:	8522                	mv	a0,s0
   13018:	4a6010ef          	jal	ra,0x144be
   1301c:	8a2a                	mv	s4,a0
   1301e:	401c                	lw	a5,0(s0)
   13020:	08a40703          	lb	a4,138(s0)
   13024:	0207f493          	andi	s1,a5,32
   13028:	2481                	sext.w	s1,s1
   1302a:	00e04563          	bgtz	a4,0x13034
   1302e:	fdf7f793          	andi	a5,a5,-33
   13032:	c01c                	sw	a5,0(s0)
   13034:	703c                	ld	a5,96(s0)
   13036:	4981                	li	s3,0
   13038:	ef81                	bnez	a5,0x13050
   1303a:	181c                	addi	a5,sp,48
   1303c:	05843983          	ld	s3,88(s0)
   13040:	fc1c                	sd	a5,56(s0)
   13042:	ec3c                	sd	a5,88(s0)
   13044:	f41c                	sd	a5,40(s0)
   13046:	05000793          	li	a5,80
   1304a:	f03c                	sd	a5,96(s0)
   1304c:	03243023          	sd	s2,32(s0)
   13050:	86ca                	mv	a3,s2
   13052:	0038                	addi	a4,sp,8
   13054:	860a                	mv	a2,sp
   13056:	85d6                	mv	a1,s5
   13058:	8522                	mv	a0,s0
   1305a:	8efff0ef          	jal	ra,0x12948
   1305e:	892a                	mv	s2,a0
   13060:	02098463          	beqz	s3,0x13088
   13064:	643c                	ld	a5,72(s0)
   13066:	4601                	li	a2,0
   13068:	4581                	li	a1,0
   1306a:	8522                	mv	a0,s0
   1306c:	9782                	jalr	a5
   1306e:	741c                	ld	a5,40(s0)
   13070:	e391                	bnez	a5,0x13074
   13072:	597d                	li	s2,-1
   13074:	05343c23          	sd	s3,88(s0)
   13078:	06043023          	sd	zero,96(s0)
   1307c:	02043023          	sd	zero,32(s0)
   13080:	02043c23          	sd	zero,56(s0)
   13084:	02043423          	sd	zero,40(s0)
   13088:	401c                	lw	a5,0(s0)
   1308a:	0207f713          	andi	a4,a5,32
   1308e:	c311                	beqz	a4,0x13092
   13090:	597d                	li	s2,-1
   13092:	8cdd                	or	s1,s1,a5
   13094:	c004                	sw	s1,0(s0)
   13096:	000a0563          	beqz	s4,0x130a0
   1309a:	8522                	mv	a0,s0
   1309c:	486010ef          	jal	ra,0x14522
   130a0:	60f6                	ld	ra,344(sp)
   130a2:	6456                	ld	s0,336(sp)
   130a4:	854a                	mv	a0,s2
   130a6:	64b6                	ld	s1,328(sp)
   130a8:	6916                	ld	s2,320(sp)
   130aa:	79f2                	ld	s3,312(sp)
   130ac:	7a52                	ld	s4,304(sp)
   130ae:	7ab2                	ld	s5,296(sp)
   130b0:	6135                	addi	sp,sp,352
   130b2:	8082                	ret
   130b4:	597d                	li	s2,-1
   130b6:	b7ed                	j	0x130a0
   130b8:	7179                	addi	sp,sp,-48
   130ba:	f022                	sd	s0,32(sp)
   130bc:	6d40                	ld	s0,152(a0)
   130be:	ec26                	sd	s1,24(sp)
   130c0:	e052                	sd	s4,0(sp)
   130c2:	7504                	ld	s1,40(a0)
   130c4:	8a2e                	mv	s4,a1
   130c6:	7d0c                	ld	a1,56(a0)
   130c8:	641c                	ld	a5,8(s0)
   130ca:	e84a                	sd	s2,16(sp)
   130cc:	e44e                	sd	s3,8(sp)
   130ce:	f406                	sd	ra,40(sp)
   130d0:	8c8d                	sub	s1,s1,a1
   130d2:	892a                	mv	s2,a0
   130d4:	89b2                	mv	s3,a2
   130d6:	0097f363          	bgeu	a5,s1,0x130dc
   130da:	84be                	mv	s1,a5
   130dc:	cc81                	beqz	s1,0x130f4
   130de:	6008                	ld	a0,0(s0)
   130e0:	8626                	mv	a2,s1
   130e2:	0e8000ef          	jal	ra,0x131ca
   130e6:	601c                	ld	a5,0(s0)
   130e8:	97a6                	add	a5,a5,s1
   130ea:	e01c                	sd	a5,0(s0)
   130ec:	641c                	ld	a5,8(s0)
   130ee:	409784b3          	sub	s1,a5,s1
   130f2:	e404                	sd	s1,8(s0)
   130f4:	6404                	ld	s1,8(s0)
   130f6:	0099f363          	bgeu	s3,s1,0x130fc
   130fa:	84ce                	mv	s1,s3
   130fc:	cc89                	beqz	s1,0x13116
   130fe:	6008                	ld	a0,0(s0)
   13100:	8626                	mv	a2,s1
   13102:	85d2                	mv	a1,s4
   13104:	0c6000ef          	jal	ra,0x131ca
   13108:	601c                	ld	a5,0(s0)
   1310a:	97a6                	add	a5,a5,s1
   1310c:	e01c                	sd	a5,0(s0)
   1310e:	641c                	ld	a5,8(s0)
   13110:	409784b3          	sub	s1,a5,s1
   13114:	e404                	sd	s1,8(s0)
   13116:	601c                	ld	a5,0(s0)
   13118:	854e                	mv	a0,s3
   1311a:	00078023          	sb	zero,0(a5)
   1311e:	05893783          	ld	a5,88(s2)
   13122:	70a2                	ld	ra,40(sp)
   13124:	7402                	ld	s0,32(sp)
   13126:	02f93c23          	sd	a5,56(s2)
   1312a:	02f93423          	sd	a5,40(s2)
   1312e:	64e2                	ld	s1,24(sp)
   13130:	6942                	ld	s2,16(sp)
   13132:	69a2                	ld	s3,8(sp)
   13134:	6a02                	ld	s4,0(sp)
   13136:	6145                	addi	sp,sp,48
   13138:	8082                	ret
   1313a:	7129                	addi	sp,sp,-320
   1313c:	fa22                	sd	s0,304(sp)
   1313e:	f626                	sd	s1,296(sp)
   13140:	f24a                	sd	s2,288(sp)
   13142:	fe06                	sd	ra,312(sp)
   13144:	842e                	mv	s0,a1
   13146:	8932                	mv	s2,a2
   13148:	1004                	addi	s1,sp,32
   1314a:	c191                	beqz	a1,0x1314e
   1314c:	84aa                	mv	s1,a0
   1314e:	f426                	sd	s1,40(sp)
   13150:	4781                	li	a5,0
   13152:	c019                	beqz	s0,0x13158
   13154:	fff40793          	addi	a5,s0,-1
   13158:	0e800613          	li	a2,232
   1315c:	4581                	li	a1,0
   1315e:	1828                	addi	a0,sp,56
   13160:	e436                	sd	a3,8(sp)
   13162:	f83e                	sd	a5,48(sp)
   13164:	3e2000ef          	jal	ra,0x13546
   13168:	000137b7          	lui	a5,0x13
   1316c:	0b878793          	addi	a5,a5,184 # 0x130b8
   13170:	e13e                	sd	a5,128(sp)
   13172:	083c                	addi	a5,sp,24
   13174:	e93e                	sd	a5,144(sp)
   13176:	57fd                	li	a5,-1
   13178:	0cf101a3          	sb	a5,195(sp)
   1317c:	57fd                	li	a5,-1
   1317e:	c3be                	sw	a5,196(sp)
   13180:	103c                	addi	a5,sp,40
   13182:	e9be                	sd	a5,208(sp)
   13184:	800007b7          	lui	a5,0x80000
   13188:	fff7c793          	not	a5,a5
   1318c:	66a2                	ld	a3,8(sp)
   1318e:	0087fe63          	bgeu	a5,s0,0x131aa
   13192:	b65fd0ef          	jal	ra,0x10cf6
   13196:	04b00793          	li	a5,75
   1319a:	c11c                	sw	a5,0(a0)
   1319c:	557d                	li	a0,-1
   1319e:	70f2                	ld	ra,312(sp)
   131a0:	7452                	ld	s0,304(sp)
   131a2:	74b2                	ld	s1,296(sp)
   131a4:	7912                	ld	s2,288(sp)
   131a6:	6131                	addi	sp,sp,320
   131a8:	8082                	ret
   131aa:	00048023          	sb	zero,0(s1)
   131ae:	8636                	mv	a2,a3
   131b0:	85ca                	mv	a1,s2
   131b2:	1828                	addi	a0,sp,56
   131b4:	e21ff0ef          	jal	ra,0x12fd4
   131b8:	b7dd                	j	0x1319e
   131ba:	86b2                	mv	a3,a2
   131bc:	862e                	mv	a2,a1
   131be:	800005b7          	lui	a1,0x80000
   131c2:	fff5c593          	not	a1,a1
   131c6:	f75ff06f          	j	0x1313a
   131ca:	87aa                	mv	a5,a0
   131cc:	0035f713          	andi	a4,a1,3
   131d0:	c311                	beqz	a4,0x131d4
   131d2:	ea11                	bnez	a2,0x131e6
   131d4:	0037f693          	andi	a3,a5,3
   131d8:	e6d5                	bnez	a3,0x13284
   131da:	872e                	mv	a4,a1
   131dc:	86be                	mv	a3,a5
   131de:	00c58333          	add	t1,a1,a2
   131e2:	483d                	li	a6,15
   131e4:	a81d                	j	0x1321a
   131e6:	0585                	addi	a1,a1,1
   131e8:	fff5c703          	lbu	a4,-1(a1) # 0xffffffff7fffffff
   131ec:	0785                	addi	a5,a5,1
   131ee:	167d                	addi	a2,a2,-1
   131f0:	fee78fa3          	sb	a4,-1(a5) # 0xffffffff7fffffff
   131f4:	bfe1                	j	0x131cc
   131f6:	00072883          	lw	a7,0(a4) # 0x2000
   131fa:	06c1                	addi	a3,a3,16
   131fc:	0741                	addi	a4,a4,16
   131fe:	ff16a823          	sw	a7,-16(a3)
   13202:	ff472883          	lw	a7,-12(a4)
   13206:	ff16aa23          	sw	a7,-12(a3)
   1320a:	ff872883          	lw	a7,-8(a4)
   1320e:	ff16ac23          	sw	a7,-8(a3)
   13212:	ffc72883          	lw	a7,-4(a4)
   13216:	ff16ae23          	sw	a7,-4(a3)
   1321a:	40e308b3          	sub	a7,t1,a4
   1321e:	fd186ce3          	bltu	a6,a7,0x131f6
   13222:	00465713          	srli	a4,a2,0x4
   13226:	56c1                	li	a3,-16
   13228:	02d706b3          	mul	a3,a4,a3
   1322c:	0712                	slli	a4,a4,0x4
   1322e:	97ba                	add	a5,a5,a4
   13230:	95ba                	add	a1,a1,a4
   13232:	9636                	add	a2,a2,a3
   13234:	00867713          	andi	a4,a2,8
   13238:	cb11                	beqz	a4,0x1324c
   1323a:	4198                	lw	a4,0(a1)
   1323c:	07a1                	addi	a5,a5,8
   1323e:	05a1                	addi	a1,a1,8
   13240:	fee7ac23          	sw	a4,-8(a5)
   13244:	ffc5a703          	lw	a4,-4(a1)
   13248:	fee7ae23          	sw	a4,-4(a5)
   1324c:	00467713          	andi	a4,a2,4
   13250:	c711                	beqz	a4,0x1325c
   13252:	4198                	lw	a4,0(a1)
   13254:	0791                	addi	a5,a5,4
   13256:	0591                	addi	a1,a1,4
   13258:	fee7ae23          	sw	a4,-4(a5)
   1325c:	00267713          	andi	a4,a2,2
   13260:	cb19                	beqz	a4,0x13276
   13262:	0005c703          	lbu	a4,0(a1)
   13266:	0789                	addi	a5,a5,2
   13268:	0589                	addi	a1,a1,2
   1326a:	fee78f23          	sb	a4,-2(a5)
   1326e:	fff5c703          	lbu	a4,-1(a1)
   13272:	fee78fa3          	sb	a4,-1(a5)
   13276:	8a05                	andi	a2,a2,1
   13278:	c609                	beqz	a2,0x13282
   1327a:	0005c703          	lbu	a4,0(a1)
   1327e:	00e78023          	sb	a4,0(a5)
   13282:	8082                	ret
   13284:	477d                	li	a4,31
   13286:	0ac77a63          	bgeu	a4,a2,0x1333a
   1328a:	4309                	li	t1,2
   1328c:	0005c703          	lbu	a4,0(a1)
   13290:	0005a803          	lw	a6,0(a1)
   13294:	00c788b3          	add	a7,a5,a2
   13298:	1a668263          	beq	a3,t1,0x1343c
   1329c:	430d                	li	t1,3
   1329e:	22668463          	beq	a3,t1,0x134c6
   132a2:	00e78023          	sb	a4,0(a5)
   132a6:	0015c703          	lbu	a4,1(a1)
   132aa:	00358e13          	addi	t3,a1,3
   132ae:	00378313          	addi	t1,a5,3
   132b2:	00e780a3          	sb	a4,1(a5)
   132b6:	0025c703          	lbu	a4,2(a1)
   132ba:	4ec1                	li	t4,16
   132bc:	00e78123          	sb	a4,2(a5)
   132c0:	8772                	mv	a4,t3
   132c2:	879a                	mv	a5,t1
   132c4:	00172683          	lw	a3,1(a4)
   132c8:	0188581b          	srliw	a6,a6,0x18
   132cc:	07c1                	addi	a5,a5,16
   132ce:	0086959b          	slliw	a1,a3,0x8
   132d2:	00b86833          	or	a6,a6,a1
   132d6:	00572583          	lw	a1,5(a4)
   132da:	ff07a823          	sw	a6,-16(a5)
   132de:	0186d69b          	srliw	a3,a3,0x18
   132e2:	0085981b          	slliw	a6,a1,0x8
   132e6:	0106e6b3          	or	a3,a3,a6
   132ea:	fed7aa23          	sw	a3,-12(a5)
   132ee:	00972683          	lw	a3,9(a4)
   132f2:	0185d59b          	srliw	a1,a1,0x18
   132f6:	0741                	addi	a4,a4,16
   132f8:	0086981b          	slliw	a6,a3,0x8
   132fc:	0105e5b3          	or	a1,a1,a6
   13300:	ffd72803          	lw	a6,-3(a4)
   13304:	feb7ac23          	sw	a1,-8(a5)
   13308:	0186d69b          	srliw	a3,a3,0x18
   1330c:	0088159b          	slliw	a1,a6,0x8
   13310:	8ecd                	or	a3,a3,a1
   13312:	fed7ae23          	sw	a3,-4(a5)
   13316:	40f886b3          	sub	a3,a7,a5
   1331a:	fadee5e3          	bltu	t4,a3,0x132c4
   1331e:	fec60713          	addi	a4,a2,-20
   13322:	8311                	srli	a4,a4,0x4
   13324:	00170793          	addi	a5,a4,1
   13328:	0792                	slli	a5,a5,0x4
   1332a:	00fe05b3          	add	a1,t3,a5
   1332e:	1635                	addi	a2,a2,-19
   13330:	979a                	add	a5,a5,t1
   13332:	56c1                	li	a3,-16
   13334:	02d70733          	mul	a4,a4,a3
   13338:	963a                	add	a2,a2,a4
   1333a:	01067713          	andi	a4,a2,16
   1333e:	c359                	beqz	a4,0x133c4
   13340:	0005c703          	lbu	a4,0(a1)
   13344:	07c1                	addi	a5,a5,16
   13346:	05c1                	addi	a1,a1,16
   13348:	fee78823          	sb	a4,-16(a5)
   1334c:	ff15c703          	lbu	a4,-15(a1)
   13350:	fee788a3          	sb	a4,-15(a5)
   13354:	ff25c703          	lbu	a4,-14(a1)
   13358:	fee78923          	sb	a4,-14(a5)
   1335c:	ff35c703          	lbu	a4,-13(a1)
   13360:	fee789a3          	sb	a4,-13(a5)
   13364:	ff45c703          	lbu	a4,-12(a1)
   13368:	fee78a23          	sb	a4,-12(a5)
   1336c:	ff55c703          	lbu	a4,-11(a1)
   13370:	fee78aa3          	sb	a4,-11(a5)
   13374:	ff65c703          	lbu	a4,-10(a1)
   13378:	fee78b23          	sb	a4,-10(a5)
   1337c:	ff75c703          	lbu	a4,-9(a1)
   13380:	fee78ba3          	sb	a4,-9(a5)
   13384:	ff85c703          	lbu	a4,-8(a1)
   13388:	fee78c23          	sb	a4,-8(a5)
   1338c:	ff95c703          	lbu	a4,-7(a1)
   13390:	fee78ca3          	sb	a4,-7(a5)
   13394:	ffa5c703          	lbu	a4,-6(a1)
   13398:	fee78d23          	sb	a4,-6(a5)
   1339c:	ffb5c703          	lbu	a4,-5(a1)
   133a0:	fee78da3          	sb	a4,-5(a5)
   133a4:	ffc5c703          	lbu	a4,-4(a1)
   133a8:	fee78e23          	sb	a4,-4(a5)
   133ac:	ffd5c703          	lbu	a4,-3(a1)
   133b0:	fee78ea3          	sb	a4,-3(a5)
   133b4:	ffe5c703          	lbu	a4,-2(a1)
   133b8:	fee78f23          	sb	a4,-2(a5)
   133bc:	fff5c703          	lbu	a4,-1(a1)
   133c0:	fee78fa3          	sb	a4,-1(a5)
   133c4:	00867713          	andi	a4,a2,8
   133c8:	c339                	beqz	a4,0x1340e
   133ca:	0005c703          	lbu	a4,0(a1)
   133ce:	07a1                	addi	a5,a5,8
   133d0:	05a1                	addi	a1,a1,8
   133d2:	fee78c23          	sb	a4,-8(a5)
   133d6:	ff95c703          	lbu	a4,-7(a1)
   133da:	fee78ca3          	sb	a4,-7(a5)
   133de:	ffa5c703          	lbu	a4,-6(a1)
   133e2:	fee78d23          	sb	a4,-6(a5)
   133e6:	ffb5c703          	lbu	a4,-5(a1)
   133ea:	fee78da3          	sb	a4,-5(a5)
   133ee:	ffc5c703          	lbu	a4,-4(a1)
   133f2:	fee78e23          	sb	a4,-4(a5)
   133f6:	ffd5c703          	lbu	a4,-3(a1)
   133fa:	fee78ea3          	sb	a4,-3(a5)
   133fe:	ffe5c703          	lbu	a4,-2(a1)
   13402:	fee78f23          	sb	a4,-2(a5)
   13406:	fff5c703          	lbu	a4,-1(a1)
   1340a:	fee78fa3          	sb	a4,-1(a5)
   1340e:	00467713          	andi	a4,a2,4
   13412:	e40705e3          	beqz	a4,0x1325c
   13416:	0005c703          	lbu	a4,0(a1)
   1341a:	0791                	addi	a5,a5,4
   1341c:	0591                	addi	a1,a1,4
   1341e:	fee78e23          	sb	a4,-4(a5)
   13422:	ffd5c703          	lbu	a4,-3(a1)
   13426:	fee78ea3          	sb	a4,-3(a5)
   1342a:	ffe5c703          	lbu	a4,-2(a1)
   1342e:	fee78f23          	sb	a4,-2(a5)
   13432:	fff5c703          	lbu	a4,-1(a1)
   13436:	fee78fa3          	sb	a4,-1(a5)
   1343a:	b50d                	j	0x1325c
   1343c:	00e78023          	sb	a4,0(a5)
   13440:	0015c703          	lbu	a4,1(a1)
   13444:	00258e13          	addi	t3,a1,2
   13448:	00278313          	addi	t1,a5,2
   1344c:	00e780a3          	sb	a4,1(a5)
   13450:	4ec5                	li	t4,17
   13452:	8772                	mv	a4,t3
   13454:	879a                	mv	a5,t1
   13456:	00272683          	lw	a3,2(a4)
   1345a:	0108581b          	srliw	a6,a6,0x10
   1345e:	07c1                	addi	a5,a5,16
   13460:	0106959b          	slliw	a1,a3,0x10
   13464:	00b86833          	or	a6,a6,a1
   13468:	00672583          	lw	a1,6(a4)
   1346c:	ff07a823          	sw	a6,-16(a5)
   13470:	0106d69b          	srliw	a3,a3,0x10
   13474:	0105981b          	slliw	a6,a1,0x10
   13478:	0106e6b3          	or	a3,a3,a6
   1347c:	fed7aa23          	sw	a3,-12(a5)
   13480:	00a72683          	lw	a3,10(a4)
   13484:	0105d59b          	srliw	a1,a1,0x10
   13488:	0741                	addi	a4,a4,16
   1348a:	0106981b          	slliw	a6,a3,0x10
   1348e:	0105e5b3          	or	a1,a1,a6
   13492:	ffe72803          	lw	a6,-2(a4)
   13496:	feb7ac23          	sw	a1,-8(a5)
   1349a:	0106d69b          	srliw	a3,a3,0x10
   1349e:	0108159b          	slliw	a1,a6,0x10
   134a2:	8ecd                	or	a3,a3,a1
   134a4:	fed7ae23          	sw	a3,-4(a5)
   134a8:	40f886b3          	sub	a3,a7,a5
   134ac:	fadee5e3          	bltu	t4,a3,0x13456
   134b0:	fec60713          	addi	a4,a2,-20
   134b4:	8311                	srli	a4,a4,0x4
   134b6:	00170793          	addi	a5,a4,1
   134ba:	0792                	slli	a5,a5,0x4
   134bc:	00fe05b3          	add	a1,t3,a5
   134c0:	1639                	addi	a2,a2,-18
   134c2:	979a                	add	a5,a5,t1
   134c4:	b5bd                	j	0x13332
   134c6:	0585                	addi	a1,a1,1
   134c8:	00178313          	addi	t1,a5,1
   134cc:	00e78023          	sb	a4,0(a5)
   134d0:	4e49                	li	t3,18
   134d2:	872e                	mv	a4,a1
   134d4:	879a                	mv	a5,t1
   134d6:	00372683          	lw	a3,3(a4)
   134da:	0088581b          	srliw	a6,a6,0x8
   134de:	07c1                	addi	a5,a5,16
   134e0:	01869e9b          	slliw	t4,a3,0x18
   134e4:	01d86833          	or	a6,a6,t4
   134e8:	ff07a823          	sw	a6,-16(a5)
   134ec:	00772803          	lw	a6,7(a4)
   134f0:	0086d69b          	srliw	a3,a3,0x8
   134f4:	0741                	addi	a4,a4,16
   134f6:	01881e9b          	slliw	t4,a6,0x18
   134fa:	01d6e6b3          	or	a3,a3,t4
   134fe:	fed7aa23          	sw	a3,-12(a5)
   13502:	ffb72683          	lw	a3,-5(a4)
   13506:	0088581b          	srliw	a6,a6,0x8
   1350a:	01869e9b          	slliw	t4,a3,0x18
   1350e:	01d86833          	or	a6,a6,t4
   13512:	ff07ac23          	sw	a6,-8(a5)
   13516:	fff72803          	lw	a6,-1(a4)
   1351a:	0086d69b          	srliw	a3,a3,0x8
   1351e:	01881e9b          	slliw	t4,a6,0x18
   13522:	01d6e6b3          	or	a3,a3,t4
   13526:	fed7ae23          	sw	a3,-4(a5)
   1352a:	40f886b3          	sub	a3,a7,a5
   1352e:	fade64e3          	bltu	t3,a3,0x134d6
   13532:	fec60713          	addi	a4,a2,-20
   13536:	8311                	srli	a4,a4,0x4
   13538:	00170793          	addi	a5,a4,1
   1353c:	0792                	slli	a5,a5,0x4
   1353e:	95be                	add	a1,a1,a5
   13540:	163d                	addi	a2,a2,-17
   13542:	979a                	add	a5,a5,t1
   13544:	b3fd                	j	0x13332
   13546:	ca45                	beqz	a2,0x135f6
   13548:	0ff5f793          	zext.b	a5,a1
   1354c:	00f50023          	sb	a5,0(a0) # 0x13000
   13550:	00c50733          	add	a4,a0,a2
   13554:	fef70fa3          	sb	a5,-1(a4)
   13558:	4689                	li	a3,2
   1355a:	08c6fe63          	bgeu	a3,a2,0x135f6
   1355e:	00f500a3          	sb	a5,1(a0)
   13562:	00f50123          	sb	a5,2(a0)
   13566:	fef70f23          	sb	a5,-2(a4)
   1356a:	fef70ea3          	sb	a5,-3(a4)
   1356e:	4699                	li	a3,6
   13570:	08c6f363          	bgeu	a3,a2,0x135f6
   13574:	00f501a3          	sb	a5,3(a0)
   13578:	fef70e23          	sb	a5,-4(a4)
   1357c:	46a1                	li	a3,8
   1357e:	06c6fc63          	bgeu	a3,a2,0x135f6
   13582:	40a00733          	neg	a4,a0
   13586:	8b0d                	andi	a4,a4,3
   13588:	00e507b3          	add	a5,a0,a4
   1358c:	8e19                	sub	a2,a2,a4
   1358e:	01010737          	lui	a4,0x1010
   13592:	1017071b          	addiw	a4,a4,257
   13596:	0ff5f593          	zext.b	a1,a1
   1359a:	02e585bb          	mulw	a1,a1,a4
   1359e:	9a71                	andi	a2,a2,-4
   135a0:	00c78733          	add	a4,a5,a2
   135a4:	c38c                	sw	a1,0(a5)
   135a6:	feb72e23          	sw	a1,-4(a4) # 0x100fffc
   135aa:	04c6f663          	bgeu	a3,a2,0x135f6
   135ae:	c3cc                	sw	a1,4(a5)
   135b0:	c78c                	sw	a1,8(a5)
   135b2:	feb72a23          	sw	a1,-12(a4)
   135b6:	feb72c23          	sw	a1,-8(a4)
   135ba:	46e1                	li	a3,24
   135bc:	02c6fd63          	bgeu	a3,a2,0x135f6
   135c0:	c7cc                	sw	a1,12(a5)
   135c2:	cb8c                	sw	a1,16(a5)
   135c4:	cbcc                	sw	a1,20(a5)
   135c6:	cf8c                	sw	a1,24(a5)
   135c8:	feb72223          	sw	a1,-28(a4)
   135cc:	feb72423          	sw	a1,-24(a4)
   135d0:	feb72623          	sw	a1,-20(a4)
   135d4:	feb72823          	sw	a1,-16(a4)
   135d8:	1582                	slli	a1,a1,0x20
   135da:	0047f713          	andi	a4,a5,4
   135de:	9181                	srli	a1,a1,0x20
   135e0:	02059693          	slli	a3,a1,0x20
   135e4:	0761                	addi	a4,a4,24
   135e6:	8dd5                	or	a1,a1,a3
   135e8:	973e                	add	a4,a4,a5
   135ea:	46fd                	li	a3,31
   135ec:	97b2                	add	a5,a5,a2
   135ee:	40e78633          	sub	a2,a5,a4
   135f2:	00c6e363          	bltu	a3,a2,0x135f8
   135f6:	8082                	ret
   135f8:	e30c                	sd	a1,0(a4)
   135fa:	e70c                	sd	a1,8(a4)
   135fc:	eb0c                	sd	a1,16(a4)
   135fe:	ef0c                	sd	a1,24(a4)
   13600:	02070713          	addi	a4,a4,32
   13604:	b7ed                	j	0x135ee
   13606:	1141                	addi	sp,sp,-16
   13608:	e022                	sd	s0,0(sp)
   1360a:	e406                	sd	ra,8(sp)
   1360c:	0ff5f593          	zext.b	a1,a1
   13610:	842a                	mv	s0,a0
   13612:	ed99                	bnez	a1,0x13630
   13614:	08c000ef          	jal	ra,0x136a0
   13618:	942a                	add	s0,s0,a0
   1361a:	8522                	mv	a0,s0
   1361c:	60a2                	ld	ra,8(sp)
   1361e:	6402                	ld	s0,0(sp)
   13620:	0141                	addi	sp,sp,16
   13622:	8082                	ret
   13624:	00044783          	lbu	a5,0(s0)
   13628:	dbed                	beqz	a5,0x1361a
   1362a:	feb788e3          	beq	a5,a1,0x1361a
   1362e:	0405                	addi	s0,s0,1
   13630:	00747793          	andi	a5,s0,7
   13634:	fbe5                	bnez	a5,0x13624
   13636:	000197b7          	lui	a5,0x19
   1363a:	1307b603          	ld	a2,304(a5) # 0x19130
   1363e:	000197b7          	lui	a5,0x19
   13642:	1387b503          	ld	a0,312(a5) # 0x19138
   13646:	02c58633          	mul	a2,a1,a2
   1364a:	000197b7          	lui	a5,0x19
   1364e:	1407b803          	ld	a6,320(a5) # 0x19140
   13652:	6018                	ld	a4,0(s0)
   13654:	00c746b3          	xor	a3,a4,a2
   13658:	00a707b3          	add	a5,a4,a0
   1365c:	fff74713          	not	a4,a4
   13660:	8ff9                	and	a5,a5,a4
   13662:	00a68733          	add	a4,a3,a0
   13666:	fff6c693          	not	a3,a3
   1366a:	8ef9                	and	a3,a3,a4
   1366c:	8fd5                	or	a5,a5,a3
   1366e:	0107f7b3          	and	a5,a5,a6
   13672:	cb81                	beqz	a5,0x13682
   13674:	00044783          	lbu	a5,0(s0)
   13678:	d3cd                	beqz	a5,0x1361a
   1367a:	fab780e3          	beq	a5,a1,0x1361a
   1367e:	0405                	addi	s0,s0,1
   13680:	bfd5                	j	0x13674
   13682:	0421                	addi	s0,s0,8
   13684:	b7f9                	j	0x13652
   13686:	00054783          	lbu	a5,0(a0)
   1368a:	0005c703          	lbu	a4,0(a1)
   1368e:	00e79363          	bne	a5,a4,0x13694
   13692:	e781                	bnez	a5,0x1369a
   13694:	40e7853b          	subw	a0,a5,a4
   13698:	8082                	ret
   1369a:	0505                	addi	a0,a0,1
   1369c:	0585                	addi	a1,a1,1
   1369e:	b7e5                	j	0x13686
   136a0:	87aa                	mv	a5,a0
   136a2:	0077f713          	andi	a4,a5,7
   136a6:	e715                	bnez	a4,0x136d2
   136a8:	00019737          	lui	a4,0x19
   136ac:	13873583          	ld	a1,312(a4) # 0x19138
   136b0:	00019737          	lui	a4,0x19
   136b4:	14073603          	ld	a2,320(a4) # 0x19140
   136b8:	6394                	ld	a3,0(a5)
   136ba:	00b68733          	add	a4,a3,a1
   136be:	fff6c693          	not	a3,a3
   136c2:	8f75                	and	a4,a4,a3
   136c4:	8f71                	and	a4,a4,a2
   136c6:	cf11                	beqz	a4,0x136e2
   136c8:	0007c703          	lbu	a4,0(a5)
   136cc:	c711                	beqz	a4,0x136d8
   136ce:	0785                	addi	a5,a5,1
   136d0:	bfe5                	j	0x136c8
   136d2:	0007c703          	lbu	a4,0(a5)
   136d6:	e701                	bnez	a4,0x136de
   136d8:	40a78533          	sub	a0,a5,a0
   136dc:	8082                	ret
   136de:	0785                	addi	a5,a5,1
   136e0:	b7c9                	j	0x136a2
   136e2:	07a1                	addi	a5,a5,8
   136e4:	bfd1                	j	0x136b8
   136e6:	1101                	addi	sp,sp,-32
   136e8:	e822                	sd	s0,16(sp)
   136ea:	862e                	mv	a2,a1
   136ec:	842e                	mv	s0,a1
   136ee:	4581                	li	a1,0
   136f0:	e426                	sd	s1,8(sp)
   136f2:	ec06                	sd	ra,24(sp)
   136f4:	84aa                	mv	s1,a0
   136f6:	03a010ef          	jal	ra,0x14730
   136fa:	c119                	beqz	a0,0x13700
   136fc:	40950433          	sub	s0,a0,s1
   13700:	8522                	mv	a0,s0
   13702:	60e2                	ld	ra,24(sp)
   13704:	6442                	ld	s0,16(sp)
   13706:	64a2                	ld	s1,8(sp)
   13708:	6105                	addi	sp,sp,32
   1370a:	8082                	ret
   1370c:	1101                	addi	sp,sp,-32
   1370e:	e822                	sd	s0,16(sp)
   13710:	ec06                	sd	ra,24(sp)
   13712:	842a                	mv	s0,a0
   13714:	e42e                	sd	a1,8(sp)
   13716:	f8bff0ef          	jal	ra,0x136a0
   1371a:	00150613          	addi	a2,a0,1
   1371e:	8522                	mv	a0,s0
   13720:	6442                	ld	s0,16(sp)
   13722:	65a2                	ld	a1,8(sp)
   13724:	60e2                	ld	ra,24(sp)
   13726:	6105                	addi	sp,sp,32
   13728:	0820106f          	j	0x147aa
   1372c:	70818793          	addi	a5,gp,1800
   13730:	47dc                	lw	a5,12(a5)
   13732:	2781                	sext.w	a5,a5
   13734:	cf9d                	beqz	a5,0x13772
   13736:	1101                	addi	sp,sp,-32
   13738:	e822                	sd	s0,16(sp)
   1373a:	e426                	sd	s1,8(sp)
   1373c:	e04a                	sd	s2,0(sp)
   1373e:	ec06                	sd	ra,24(sp)
   13740:	842a                	mv	s0,a0
   13742:	4485                	li	s1,1
   13744:	00450913          	addi	s2,a0,4
   13748:	100427af          	lr.w	a5,(s0)
   1374c:	2781                	sext.w	a5,a5
   1374e:	1894272f          	sc.w	a4,s1,(s0)
   13752:	2701                	sext.w	a4,a4
   13754:	fb75                	bnez	a4,0x13748
   13756:	e799                	bnez	a5,0x13764
   13758:	60e2                	ld	ra,24(sp)
   1375a:	6442                	ld	s0,16(sp)
   1375c:	64a2                	ld	s1,8(sp)
   1375e:	6902                	ld	s2,0(sp)
   13760:	6105                	addi	sp,sp,32
   13762:	8082                	ret
   13764:	4685                	li	a3,1
   13766:	4605                	li	a2,1
   13768:	85ca                	mv	a1,s2
   1376a:	8522                	mv	a0,s0
   1376c:	04a000ef          	jal	ra,0x137b6
   13770:	bfe1                	j	0x13748
   13772:	8082                	ret
   13774:	4118                	lw	a4,0(a0)
   13776:	87aa                	mv	a5,a0
   13778:	2701                	sext.w	a4,a4
   1377a:	cb0d                	beqz	a4,0x137ac
   1377c:	0330000f          	fence	rw,rw
   13780:	00052023          	sw	zero,0(a0)
   13784:	0330000f          	fence	rw,rw
   13788:	4158                	lw	a4,4(a0)
   1378a:	2701                	sext.w	a4,a4
   1378c:	c305                	beqz	a4,0x137ac
   1378e:	06200893          	li	a7,98
   13792:	08100593          	li	a1,129
   13796:	4605                	li	a2,1
   13798:	00000073          	ecall
   1379c:	fda00713          	li	a4,-38
   137a0:	00e51663          	bne	a0,a4,0x137ac
   137a4:	853e                	mv	a0,a5
   137a6:	4585                	li	a1,1
   137a8:	00000073          	ecall
   137ac:	8082                	ret
   137ae:	7300006f          	j	0x13ede
   137b2:	ffdff06f          	j	0x137ae
   137b6:	872a                	mv	a4,a0
   137b8:	87ae                	mv	a5,a1
   137ba:	8832                	mv	a6,a2
   137bc:	8336                	mv	t1,a3
   137be:	ea8d                	bnez	a3,0x137f0
   137c0:	06500613          	li	a2,101
   137c4:	a039                	j	0x137d2
   137c6:	4314                	lw	a3,0(a4)
   137c8:	2681                	sext.w	a3,a3
   137ca:	05069663          	bne	a3,a6,0x13816
   137ce:	0330000f          	fence	rw,rw
   137d2:	367d                	addiw	a2,a2,-1
   137d4:	c20d                	beqz	a2,0x137f6
   137d6:	dbe5                	beqz	a5,0x137c6
   137d8:	4394                	lw	a3,0(a5)
   137da:	2681                	sext.w	a3,a3
   137dc:	d6ed                	beqz	a3,0x137c6
   137de:	1007a6af          	lr.w	a3,(a5)
   137e2:	2685                	addiw	a3,a3,1
   137e4:	18d7a62f          	sc.w	a2,a3,(a5)
   137e8:	0006069b          	sext.w	a3,a2
   137ec:	faed                	bnez	a3,0x137de
   137ee:	a029                	j	0x137f8
   137f0:	08000313          	li	t1,128
   137f4:	b7f1                	j	0x137c0
   137f6:	f7e5                	bnez	a5,0x137de
   137f8:	fda00e13          	li	t3,-38
   137fc:	4314                	lw	a3,0(a4)
   137fe:	2681                	sext.w	a3,a3
   13800:	01068c63          	beq	a3,a6,0x13818
   13804:	cb89                	beqz	a5,0x13816
   13806:	1007a72f          	lr.w	a4,(a5)
   1380a:	377d                	addiw	a4,a4,-1
   1380c:	18e7a6af          	sc.w	a3,a4,(a5)
   13810:	0006871b          	sext.w	a4,a3
   13814:	fb6d                	bnez	a4,0x13806
   13816:	8082                	ret
   13818:	06200893          	li	a7,98
   1381c:	853a                	mv	a0,a4
   1381e:	859a                	mv	a1,t1
   13820:	8642                	mv	a2,a6
   13822:	4681                	li	a3,0
   13824:	00000073          	ecall
   13828:	fdc51ae3          	bne	a0,t3,0x137fc
   1382c:	853a                	mv	a0,a4
   1382e:	4581                	li	a1,0
   13830:	00000073          	ecall
   13834:	b7e1                	j	0x137fc
   13836:	7159                	addi	sp,sp,-112
   13838:	f486                	sd	ra,104(sp)
   1383a:	f0a2                	sd	s0,96(sp)
   1383c:	eca6                	sd	s1,88(sp)
   1383e:	cb8fd0ef          	jal	ra,0x10cf6
   13842:	4104                	lw	s1,0(a0)
   13844:	4601                	li	a2,0
   13846:	4581                	li	a1,0
   13848:	0068                	addi	a0,sp,12
   1384a:	7a3000ef          	jal	ra,0x147ec
   1384e:	4601                	li	a2,0
   13850:	4581                	li	a1,0
   13852:	1068                	addi	a0,sp,44
   13854:	799000ef          	jal	ra,0x147ec
   13858:	4401                	li	s0,0
   1385a:	0b200893          	li	a7,178
   1385e:	00000073          	ecall
   13862:	c42a                	sw	a0,8(sp)
   13864:	860a                	mv	a2,sp
   13866:	8f81b703          	ld	a4,-1800(gp)
   1386a:	87a2                	mv	a5,s0
   1386c:	8f818513          	addi	a0,gp,-1800
   13870:	e03a                	sd	a4,0(sp)
   13872:	100535af          	lr.d	a1,(a0)
   13876:	00e59563          	bne	a1,a4,0x13880
   1387a:	18c537af          	sc.d	a5,a2,(a0)
   1387e:	fbf5                	bnez	a5,0x13872
   13880:	0007841b          	sext.w	s0,a5
   13884:	feb711e3          	bne	a4,a1,0x13866
   13888:	47a2                	lw	a5,8(sp)
   1388a:	4701                	li	a4,0
   1388c:	4601                	li	a2,0
   1388e:	8e818593          	addi	a1,gp,-1816
   13892:	1005a6af          	lr.w	a3,(a1)
   13896:	00f69563          	bne	a3,a5,0x138a0
   1389a:	18c5a72f          	sc.w	a4,a2,(a1)
   1389e:	fb75                	bnez	a4,0x13892
   138a0:	0006871b          	sext.w	a4,a3
   138a4:	800006b7          	lui	a3,0x80000
   138a8:	8fd5                	or	a5,a5,a3
   138aa:	00f71a63          	bne	a4,a5,0x138be
   138ae:	06200893          	li	a7,98
   138b2:	8e818513          	addi	a0,gp,-1816
   138b6:	08700593          	li	a1,135
   138ba:	00000073          	ecall
   138be:	0068                	addi	a0,sp,12
   138c0:	7df000ef          	jal	ra,0x1489e
   138c4:	8d81b503          	ld	a0,-1832(gp)
   138c8:	8e01b783          	ld	a5,-1824(gp)
   138cc:	9782                	jalr	a5
   138ce:	1068                	addi	a0,sp,44
   138d0:	747000ef          	jal	ra,0x14816
   138d4:	0068                	addi	a0,sp,12
   138d6:	7c9000ef          	jal	ra,0x1489e
   138da:	c1cfd0ef          	jal	ra,0x10cf6
   138de:	70a6                	ld	ra,104(sp)
   138e0:	7406                	ld	s0,96(sp)
   138e2:	c104                	sw	s1,0(a0)
   138e4:	64e6                	ld	s1,88(sp)
   138e6:	6165                	addi	sp,sp,112
   138e8:	8082                	ret
   138ea:	7105                	addi	sp,sp,-480
   138ec:	ef86                	sd	ra,472(sp)
   138ee:	eba2                	sd	s0,464(sp)
   138f0:	e7a6                	sd	s1,456(sp)
   138f2:	e3ca                	sd	s2,448(sp)
   138f4:	ff4e                	sd	s3,440(sp)
   138f6:	fb52                	sd	s4,432(sp)
   138f8:	eb62                	sd	s8,400(sp)
   138fa:	e766                	sd	s9,392(sp)
   138fc:	f756                	sd	s5,424(sp)
   138fe:	f35a                	sd	s6,416(sp)
   13900:	ef5e                	sd	s7,408(sp)
   13902:	e36a                	sd	s10,384(sp)
   13904:	feee                	sd	s11,376(sp)
   13906:	6605                	lui	a2,0x1
   13908:	81010113          	addi	sp,sp,-2032
   1390c:	82060613          	addi	a2,a2,-2016 # 0x820
   13910:	8c2a                	mv	s8,a0
   13912:	8cae                	mv	s9,a1
   13914:	0288                	addi	a0,sp,320
   13916:	4581                	li	a1,0
   13918:	c2fff0ef          	jal	ra,0x13546
   1391c:	09000613          	li	a2,144
   13920:	4581                	li	a1,0
   13922:	1908                	addi	a0,sp,176
   13924:	c23ff0ef          	jal	ra,0x13546
   13928:	000147b7          	lui	a5,0x14
   1392c:	83678793          	addi	a5,a5,-1994 # 0x13836
   13930:	f53e                	sd	a5,168(sp)
   13932:	6905                	lui	s2,0x1
   13934:	100007b7          	lui	a5,0x10000
   13938:	0818                	addi	a4,sp,16
   1393a:	747d                	lui	s0,0xfffff
   1393c:	12f12823          	sw	a5,304(sp)
   13940:	95090793          	addi	a5,s2,-1712 # 0x950
   13944:	97ba                	add	a5,a5,a4
   13946:	6c840513          	addi	a0,s0,1736 # 0xfffffffffffff6c8
   1394a:	953e                	add	a0,a0,a5
   1394c:	20f000ef          	jal	ra,0x1435a
   13950:	8f018513          	addi	a0,gp,-1808
   13954:	dd9ff0ef          	jal	ra,0x1372c
   13958:	4501                	li	a0,0
   1395a:	1ed000ef          	jal	ra,0x14346
   1395e:	0818                	addi	a4,sp,16
   13960:	95090793          	addi	a5,s2,-1712
   13964:	97ba                	add	a5,a5,a4
   13966:	6b440593          	addi	a1,s0,1716
   1396a:	95be                	add	a1,a1,a5
   1396c:	4505                	li	a0,1
   1396e:	65d000ef          	jal	ra,0x147ca
   13972:	70818993          	addi	s3,gp,1800
   13976:	0049a783          	lw	a5,4(s3)
   1397a:	8e01bc23          	sd	zero,-1800(gp)
   1397e:	1a078f63          	beqz	a5,0x13b3c
   13982:	8f81b023          	sd	s8,-1824(gp)
   13986:	8d91bc23          	sd	s9,-1832(gp)
   1398a:	0330000f          	fence	rw,rw
   1398e:	4705                	li	a4,1
   13990:	8ce1a823          	sw	a4,-1840(gp)
   13994:	0330000f          	fence	rw,rw
   13998:	0818                	addi	a4,sp,16
   1399a:	95090793          	addi	a5,s2,-1712
   1399e:	97ba                	add	a5,a5,a4
   139a0:	74840413          	addi	s0,s0,1864
   139a4:	943e                	add	s0,s0,a5
   139a6:	08000613          	li	a2,128
   139aa:	55fd                	li	a1,-1
   139ac:	00840513          	addi	a0,s0,8
   139b0:	b97ff0ef          	jal	ra,0x13546
   139b4:	4601                	li	a2,0
   139b6:	85a2                	mv	a1,s0
   139b8:	02200513          	li	a0,34
   139bc:	1cf000ef          	jal	ra,0x1438a
   139c0:	0ac00893          	li	a7,172
   139c4:	00000073          	ecall
   139c8:	0b200893          	li	a7,178
   139cc:	892a                	mv	s2,a0
   139ce:	00000073          	ecall
   139d2:	8daa                	mv	s11,a0
   139d4:	00018537          	lui	a0,0x18
   139d8:	000845b7          	lui	a1,0x84
   139dc:	c3850513          	addi	a0,a0,-968 # 0x17c38
   139e0:	ba4fd0ef          	jal	ra,0x10d84
   139e4:	14a12023          	sw	a0,320(sp)
   139e8:	08055163          	bgez	a0,0x13a6a
   139ec:	0330000f          	fence	rw,rw
   139f0:	8c01a823          	sw	zero,-1840(gp)
   139f4:	0330000f          	fence	rw,rw
   139f8:	80000637          	lui	a2,0x80000
   139fc:	06200893          	li	a7,98
   13a00:	8d018513          	addi	a0,gp,-1840
   13a04:	08100593          	li	a1,129
   13a08:	fff64613          	not	a2,a2
   13a0c:	00000073          	ecall
   13a10:	fda00713          	li	a4,-38
   13a14:	00e51763          	bne	a0,a4,0x13a22
   13a18:	8d018513          	addi	a0,gp,-1840
   13a1c:	4585                	li	a1,1
   13a1e:	00000073          	ecall
   13a22:	4552                	lw	a0,20(sp)
   13a24:	4581                	li	a1,0
   13a26:	747d                	lui	s0,0xfffff
   13a28:	5a3000ef          	jal	ra,0x147ca
   13a2c:	8f018513          	addi	a0,gp,-1808
   13a30:	d45ff0ef          	jal	ra,0x13774
   13a34:	6785                	lui	a5,0x1
   13a36:	0818                	addi	a4,sp,16
   13a38:	95078793          	addi	a5,a5,-1712 # 0x950
   13a3c:	6c840513          	addi	a0,s0,1736 # 0xfffffffffffff6c8
   13a40:	97ba                	add	a5,a5,a4
   13a42:	953e                	add	a0,a0,a5
   13a44:	12b000ef          	jal	ra,0x1436e
   13a48:	7f010113          	addi	sp,sp,2032
   13a4c:	60fe                	ld	ra,472(sp)
   13a4e:	645e                	ld	s0,464(sp)
   13a50:	64be                	ld	s1,456(sp)
   13a52:	691e                	ld	s2,448(sp)
   13a54:	79fa                	ld	s3,440(sp)
   13a56:	7a5a                	ld	s4,432(sp)
   13a58:	7aba                	ld	s5,424(sp)
   13a5a:	7b1a                	ld	s6,416(sp)
   13a5c:	6bfa                	ld	s7,408(sp)
   13a5e:	6c5a                	ld	s8,400(sp)
   13a60:	6cba                	ld	s9,392(sp)
   13a62:	6d1a                	ld	s10,384(sp)
   13a64:	7df6                	ld	s11,376(sp)
   13a66:	613d                	addi	sp,sp,480
   13a68:	8082                	ret
   13a6a:	00c9a783          	lw	a5,12(s3)
   13a6e:	2901                	sext.w	s2,s2
   13a70:	2781                	sext.w	a5,a5
   13a72:	e3b9                	bnez	a5,0x13ab8
   13a74:	6705                	lui	a4,0x1
   13a76:	747d                	lui	s0,0xfffff
   13a78:	0814                	addi	a3,sp,16
   13a7a:	95070793          	addi	a5,a4,-1712 # 0x950
   13a7e:	97b6                	add	a5,a5,a3
   13a80:	7e040993          	addi	s3,s0,2016 # 0xfffffffffffff7e0
   13a84:	99be                	add	s3,s3,a5
   13a86:	95070793          	addi	a5,a4,-1712
   13a8a:	6b840a93          	addi	s5,s0,1720
   13a8e:	97b6                	add	a5,a5,a3
   13a90:	9abe                	add	s5,s5,a5
   13a92:	000d879b          	sext.w	a5,s11
   13a96:	00989bb7          	lui	s7,0x989
   13a9a:	4b01                	li	s6,0
   13a9c:	e43e                	sd	a5,8(sp)
   13a9e:	680b8b93          	addi	s7,s7,1664 # 0x989680
   13aa2:	854e                	mv	a0,s3
   13aa4:	1e0000ef          	jal	ra,0x13c84
   13aa8:	4725                	li	a4,9
   13aaa:	e105                	bnez	a0,0x13aca
   13aac:	040b0b63          	beqz	s6,0x13b02
   13ab0:	854e                	mv	a0,s3
   13ab2:	23a000ef          	jal	ra,0x13cec
   13ab6:	bff1                	j	0x13a92
   13ab8:	08100893          	li	a7,129
   13abc:	854a                	mv	a0,s2
   13abe:	02200593          	li	a1,34
   13ac2:	00000073          	ecall
   13ac6:	37fd                	addiw	a5,a5,-1
   13ac8:	b76d                	j	0x13a72
   13aca:	01354783          	lbu	a5,19(a0)
   13ace:	fd07879b          	addiw	a5,a5,-48
   13ad2:	fcf768e3          	bltu	a4,a5,0x13aa2
   13ad6:	054d                	addi	a0,a0,19
   13ad8:	3fd000ef          	jal	ra,0x146d4
   13adc:	67a2                	ld	a5,8(sp)
   13ade:	85aa                	mv	a1,a0
   13ae0:	fca781e3          	beq	a5,a0,0x13aa2
   13ae4:	dd5d                	beqz	a0,0x13aa2
   13ae6:	0330000f          	fence	rw,rw
   13aea:	8ea1a423          	sw	a0,-1816(gp)
   13aee:	0330000f          	fence	rw,rw
   13af2:	8f81b783          	ld	a5,-1800(gp)
   13af6:	cbad                	beqz	a5,0x13b68
   13af8:	4798                	lw	a4,8(a5)
   13afa:	fab704e3          	beq	a4,a1,0x13aa2
   13afe:	639c                	ld	a5,0(a5)
   13b00:	bfdd                	j	0x13af6
   13b02:	6785                	lui	a5,0x1
   13b04:	0818                	addi	a4,sp,16
   13b06:	95078793          	addi	a5,a5,-1712 # 0x950
   13b0a:	97ba                	add	a5,a5,a4
   13b0c:	943e                	add	s0,s0,a5
   13b0e:	7e042503          	lw	a0,2016(s0)
   13b12:	10a000ef          	jal	ra,0x13c1c
   13b16:	8f81b403          	ld	s0,-1800(gp)
   13b1a:	ec0d                	bnez	s0,0x13b54
   13b1c:	4785                	li	a5,1
   13b1e:	f53e                	sd	a5,168(sp)
   13b20:	6785                	lui	a5,0x1
   13b22:	75fd                	lui	a1,0xfffff
   13b24:	95078793          	addi	a5,a5,-1712 # 0x950
   13b28:	0818                	addi	a4,sp,16
   13b2a:	74858593          	addi	a1,a1,1864 # 0xfffffffffffff748
   13b2e:	97ba                	add	a5,a5,a4
   13b30:	4601                	li	a2,0
   13b32:	95be                	add	a1,a1,a5
   13b34:	02200513          	li	a0,34
   13b38:	053000ef          	jal	ra,0x1438a
   13b3c:	8566                	mv	a0,s9
   13b3e:	9c02                	jalr	s8
   13b40:	8f81b503          	ld	a0,-1800(gp)
   13b44:	ea0504e3          	beqz	a0,0x139ec
   13b48:	6100                	ld	s0,0(a0)
   13b4a:	0531                	addi	a0,a0,12
   13b4c:	4cb000ef          	jal	ra,0x14816
   13b50:	8522                	mv	a0,s0
   13b52:	bfcd                	j	0x13b44
   13b54:	00c40513          	addi	a0,s0,12
   13b58:	4bf000ef          	jal	ra,0x14816
   13b5c:	02c40513          	addi	a0,s0,44
   13b60:	53f000ef          	jal	ra,0x1489e
   13b64:	6000                	ld	s0,0(s0)
   13b66:	bf55                	j	0x13b1a
   13b68:	08300893          	li	a7,131
   13b6c:	854a                	mv	a0,s2
   13b6e:	02200613          	li	a2,34
   13b72:	00000073          	ecall
   13b76:	478d                	li	a5,3
   13b78:	40a0053b          	negw	a0,a0
   13b7c:	f2f503e3          	beq	a0,a5,0x13aa2
   13b80:	85d6                	mv	a1,s5
   13b82:	4501                	li	a0,0
   13b84:	050000ef          	jal	ra,0x13bd4
   13b88:	7782                	ld	a5,32(sp)
   13b8a:	3b9ad737          	lui	a4,0x3b9ad
   13b8e:	9ff70713          	addi	a4,a4,-1537 # 0x3b9ac9ff
   13b92:	017786b3          	add	a3,a5,s7
   13b96:	f036                	sd	a3,32(sp)
   13b98:	00d75b63          	bge	a4,a3,0x13bae
   13b9c:	6762                	ld	a4,24(sp)
   13b9e:	0705                	addi	a4,a4,1
   13ba0:	ec3a                	sd	a4,24(sp)
   13ba2:	c4fdd737          	lui	a4,0xc4fdd
   13ba6:	c8070713          	addi	a4,a4,-896 # 0xffffffffc4fdcc80
   13baa:	97ba                	add	a5,a5,a4
   13bac:	f03e                	sd	a5,32(sp)
   13bae:	06200893          	li	a7,98
   13bb2:	8e818513          	addi	a0,gp,-1816
   13bb6:	08600593          	li	a1,134
   13bba:	4601                	li	a2,0
   13bbc:	86d6                	mv	a3,s5
   13bbe:	00000073          	ecall
   13bc2:	40a0053b          	negw	a0,a0
   13bc6:	ec050ee3          	beqz	a0,0x13aa2
   13bca:	478d                	li	a5,3
   13bcc:	ecf50be3          	beq	a0,a5,0x13aa2
   13bd0:	2b05                	addiw	s6,s6,1
   13bd2:	bdc1                	j	0x13aa2
   13bd4:	872a                	mv	a4,a0
   13bd6:	07100893          	li	a7,113
   13bda:	00000073          	ecall
   13bde:	fda00693          	li	a3,-38
   13be2:	2501                	sext.w	a0,a0
   13be4:	02d51363          	bne	a0,a3,0x13c0a
   13be8:	5529                	li	a0,-22
   13bea:	e305                	bnez	a4,0x13c0a
   13bec:	87ae                	mv	a5,a1
   13bee:	852e                	mv	a0,a1
   13bf0:	0a900893          	li	a7,169
   13bf4:	4581                	li	a1,0
   13bf6:	00000073          	ecall
   13bfa:	6794                	ld	a3,8(a5)
   13bfc:	3e800713          	li	a4,1000
   13c00:	4501                	li	a0,0
   13c02:	02d7073b          	mulw	a4,a4,a3
   13c06:	e798                	sd	a4,8(a5)
   13c08:	8082                	ret
   13c0a:	1141                	addi	sp,sp,-16
   13c0c:	e406                	sd	ra,8(sp)
   13c0e:	9eefd0ef          	jal	ra,0x10dfc
   13c12:	60a2                	ld	ra,8(sp)
   13c14:	2501                	sext.w	a0,a0
   13c16:	0141                	addi	sp,sp,16
   13c18:	8082                	ret
   13c1a:	8082                	ret
   13c1c:	1141                	addi	sp,sp,-16
   13c1e:	e406                	sd	ra,8(sp)
   13c20:	ffbff0ef          	jal	ra,0x13c1a
   13c24:	4781                	li	a5,0
   13c26:	85aa                	mv	a1,a0
   13c28:	4801                	li	a6,0
   13c2a:	4701                	li	a4,0
   13c2c:	4681                	li	a3,0
   13c2e:	4601                	li	a2,0
   13c30:	03900513          	li	a0,57
   13c34:	b7fff0ef          	jal	ra,0x137b2
   13c38:	2501                	sext.w	a0,a0
   13c3a:	57f1                	li	a5,-4
   13c3c:	00f51363          	bne	a0,a5,0x13c42
   13c40:	4501                	li	a0,0
   13c42:	9bafd0ef          	jal	ra,0x10dfc
   13c46:	60a2                	ld	ra,8(sp)
   13c48:	2501                	sext.w	a0,a0
   13c4a:	0141                	addi	sp,sp,16
   13c4c:	8082                	ret
   13c4e:	1141                	addi	sp,sp,-16
   13c50:	e406                	sd	ra,8(sp)
   13c52:	48dd                	li	a7,23
   13c54:	00000073          	ecall
   13c58:	9a4fd0ef          	jal	ra,0x10dfc
   13c5c:	60a2                	ld	ra,8(sp)
   13c5e:	2501                	sext.w	a0,a0
   13c60:	0141                	addi	sp,sp,16
   13c62:	8082                	ret
   13c64:	1141                	addi	sp,sp,-16
   13c66:	86b2                	mv	a3,a2
   13c68:	4801                	li	a6,0
   13c6a:	862e                	mv	a2,a1
   13c6c:	4781                	li	a5,0
   13c6e:	85aa                	mv	a1,a0
   13c70:	4701                	li	a4,0
   13c72:	04000513          	li	a0,64
   13c76:	e406                	sd	ra,8(sp)
   13c78:	b3bff0ef          	jal	ra,0x137b2
   13c7c:	60a2                	ld	ra,8(sp)
   13c7e:	0141                	addi	sp,sp,16
   13c80:	97cfd06f          	j	0x10dfc
   13c84:	4914                	lw	a3,16(a0)
   13c86:	4958                	lw	a4,20(a0)
   13c88:	1101                	addi	sp,sp,-32
   13c8a:	e822                	sd	s0,16(sp)
   13c8c:	ec06                	sd	ra,24(sp)
   13c8e:	e426                	sd	s1,8(sp)
   13c90:	87aa                	mv	a5,a0
   13c92:	02050413          	addi	s0,a0,32
   13c96:	04e6c263          	blt	a3,a4,0x13cda
   13c9a:	6605                	lui	a2,0x1
   13c9c:	03d00893          	li	a7,61
   13ca0:	4108                	lw	a0,0(a0)
   13ca2:	85a2                	mv	a1,s0
   13ca4:	80060613          	addi	a2,a2,-2048 # 0x800
   13ca8:	00000073          	ecall
   13cac:	0005049b          	sext.w	s1,a0
   13cb0:	02904263          	bgtz	s1,0x13cd4
   13cb4:	2509                	addiw	a0,a0,2
   13cb6:	9975                	andi	a0,a0,-3
   13cb8:	2501                	sext.w	a0,a0
   13cba:	4401                	li	s0,0
   13cbc:	c511                	beqz	a0,0x13cc8
   13cbe:	838fd0ef          	jal	ra,0x10cf6
   13cc2:	409004bb          	negw	s1,s1
   13cc6:	c104                	sw	s1,0(a0)
   13cc8:	8522                	mv	a0,s0
   13cca:	60e2                	ld	ra,24(sp)
   13ccc:	6442                	ld	s0,16(sp)
   13cce:	64a2                	ld	s1,8(sp)
   13cd0:	6105                	addi	sp,sp,32
   13cd2:	8082                	ret
   13cd4:	cbc4                	sw	s1,20(a5)
   13cd6:	0007a823          	sw	zero,16(a5)
   13cda:	4b94                	lw	a3,16(a5)
   13cdc:	9436                	add	s0,s0,a3
   13cde:	01045703          	lhu	a4,16(s0)
   13ce2:	9f35                	addw	a4,a4,a3
   13ce4:	cb98                	sw	a4,16(a5)
   13ce6:	6418                	ld	a4,8(s0)
   13ce8:	e798                	sd	a4,8(a5)
   13cea:	bff9                	j	0x13cc8
   13cec:	1101                	addi	sp,sp,-32
   13cee:	e426                	sd	s1,8(sp)
   13cf0:	01850493          	addi	s1,a0,24
   13cf4:	e822                	sd	s0,16(sp)
   13cf6:	842a                	mv	s0,a0
   13cf8:	8526                	mv	a0,s1
   13cfa:	ec06                	sd	ra,24(sp)
   13cfc:	a31ff0ef          	jal	ra,0x1372c
   13d00:	4008                	lw	a0,0(s0)
   13d02:	4601                	li	a2,0
   13d04:	4581                	li	a1,0
   13d06:	40d000ef          	jal	ra,0x14912
   13d0a:	00043423          	sd	zero,8(s0)
   13d0e:	00043823          	sd	zero,16(s0)
   13d12:	6442                	ld	s0,16(sp)
   13d14:	60e2                	ld	ra,24(sp)
   13d16:	8526                	mv	a0,s1
   13d18:	64a2                	ld	s1,8(sp)
   13d1a:	6105                	addi	sp,sp,32
   13d1c:	a59ff06f          	j	0x13774
   13d20:	1141                	addi	sp,sp,-16
   13d22:	e022                	sd	s0,0(sp)
   13d24:	e406                	sd	ra,8(sp)
   13d26:	842a                	mv	s0,a0
   13d28:	e108                	sd	a0,0(a0)
   13d2a:	10850513          	addi	a0,a0,264
   13d2e:	2b9000ef          	jal	ra,0x147e6
   13d32:	02054863          	bltz	a0,0x13d62
   13d36:	e501                	bnez	a0,0x13d3e
   13d38:	4705                	li	a4,1
   13d3a:	70e1a423          	sw	a4,1800(gp)
   13d3e:	06000893          	li	a7,96
   13d42:	03840513          	addi	a0,s0,56
   13d46:	00000073          	ecall
   13d4a:	74818793          	addi	a5,gp,1864
   13d4e:	e47c                	sd	a5,200(s0)
   13d50:	0a840793          	addi	a5,s0,168
   13d54:	dc08                	sw	a0,56(s0)
   13d56:	f45c                	sd	a5,168(s0)
   13d58:	4501                	li	a0,0
   13d5a:	60a2                	ld	ra,8(sp)
   13d5c:	6402                	ld	s0,0(sp)
   13d5e:	0141                	addi	sp,sp,16
   13d60:	8082                	ret
   13d62:	557d                	li	a0,-1
   13d64:	bfdd                	j	0x13d5a
   13d66:	7179                	addi	sp,sp,-48
   13d68:	70818713          	addi	a4,gp,1800
   13d6c:	f022                	sd	s0,32(sp)
   13d6e:	7b14                	ld	a3,48(a4)
   13d70:	7300                	ld	s0,32(a4)
   13d72:	ec26                	sd	s1,24(sp)
   13d74:	7704                	ld	s1,40(a4)
   13d76:	068e                	slli	a3,a3,0x3
   13d78:	1461                	addi	s0,s0,-8
   13d7a:	8c15                	sub	s0,s0,a3
   13d7c:	ee800693          	li	a3,-280
   13d80:	e84a                	sd	s2,16(sp)
   13d82:	14fd                	addi	s1,s1,-1
   13d84:	8e89                	sub	a3,a3,a0
   13d86:	01873903          	ld	s2,24(a4)
   13d8a:	942a                	add	s0,s0,a0
   13d8c:	8cf5                	and	s1,s1,a3
   13d8e:	e44e                	sd	s3,8(sp)
   13d90:	e052                	sd	s4,0(sp)
   13d92:	f406                	sd	ra,40(sp)
   13d94:	94aa                	add	s1,s1,a0
   13d96:	00840a13          	addi	s4,s0,8
   13d9a:	70818993          	addi	s3,gp,1800
   13d9e:	02091163          	bnez	s2,0x13dc0
   13da2:	0309b783          	ld	a5,48(s3)
   13da6:	70a2                	ld	ra,40(sp)
   13da8:	8526                	mv	a0,s1
   13daa:	e01c                	sd	a5,0(s0)
   13dac:	1084b823          	sd	s0,272(s1)
   13db0:	e480                	sd	s0,8(s1)
   13db2:	7402                	ld	s0,32(sp)
   13db4:	64e2                	ld	s1,24(sp)
   13db6:	6942                	ld	s2,16(sp)
   13db8:	69a2                	ld	s3,8(sp)
   13dba:	6a02                	ld	s4,0(sp)
   13dbc:	6145                	addi	sp,sp,48
   13dbe:	8082                	ret
   13dc0:	02893503          	ld	a0,40(s2)
   13dc4:	01093603          	ld	a2,16(s2)
   13dc8:	0a21                	addi	s4,s4,8
   13dca:	11850513          	addi	a0,a0,280
   13dce:	9526                	add	a0,a0,s1
   13dd0:	feaa3c23          	sd	a0,-8(s4) # 0xffffffff7ffffff8
   13dd4:	00893583          	ld	a1,8(s2)
   13dd8:	bf2ff0ef          	jal	ra,0x131ca
   13ddc:	00093903          	ld	s2,0(s2)
   13de0:	bf7d                	j	0x13d9e
   13de2:	01853883          	ld	a7,24(a0)
   13de6:	750c                	ld	a1,40(a0)
   13de8:	1141                	addi	sp,sp,-16
   13dea:	00000637          	lui	a2,0x0
   13dee:	e406                	sd	ra,8(sp)
   13df0:	86c6                	mv	a3,a7
   13df2:	4781                	li	a5,0
   13df4:	4701                	li	a4,0
   13df6:	4319                	li	t1,6
   13df8:	4e09                	li	t3,2
   13dfa:	4e9d                	li	t4,7
   13dfc:	00060613          	mv	a2,a2
   13e00:	edc1                	bnez	a1,0x13e98
   13e02:	53018513          	addi	a0,gp,1328
   13e06:	70818693          	addi	a3,gp,1800
   13e0a:	c31d                	beqz	a4,0x13e30
   13e0c:	6b10                	ld	a2,16(a4)
   13e0e:	97b2                	add	a5,a5,a2
   13e10:	1af53423          	sd	a5,424(a0)
   13e14:	731c                	ld	a5,32(a4)
   13e16:	1af53823          	sd	a5,432(a0)
   13e1a:	771c                	ld	a5,40(a4)
   13e1c:	1af53c23          	sd	a5,440(a0)
   13e20:	7b1c                	ld	a5,48(a4)
   13e22:	1cf53023          	sd	a5,448(a0)
   13e26:	4785                	li	a5,1
   13e28:	fa9c                	sd	a5,48(a3)
   13e2a:	1a050793          	addi	a5,a0,416
   13e2e:	ee9c                	sd	a5,24(a3)
   13e30:	1b853703          	ld	a4,440(a0)
   13e34:	1a853583          	ld	a1,424(a0)
   13e38:	1c053603          	ld	a2,448(a0)
   13e3c:	95ba                	add	a1,a1,a4
   13e3e:	fff60793          	addi	a5,a2,-1
   13e42:	40b005b3          	neg	a1,a1
   13e46:	8dfd                	and	a1,a1,a5
   13e48:	972e                	add	a4,a4,a1
   13e4a:	1ae53c23          	sd	a4,440(a0)
   13e4e:	479d                	li	a5,7
   13e50:	00c7e563          	bltu	a5,a2,0x13e5a
   13e54:	47a1                	li	a5,8
   13e56:	1cf53023          	sd	a5,448(a0)
   13e5a:	1c053783          	ld	a5,448(a0)
   13e5e:	12f78593          	addi	a1,a5,303
   13e62:	95ba                	add	a1,a1,a4
   13e64:	99e1                	andi	a1,a1,-8
   13e66:	f69c                	sd	a5,40(a3)
   13e68:	f28c                	sd	a1,32(a3)
   13e6a:	1a000793          	li	a5,416
   13e6e:	00b7fc63          	bgeu	a5,a1,0x13e86
   13e72:	0de00893          	li	a7,222
   13e76:	4501                	li	a0,0
   13e78:	460d                	li	a2,3
   13e7a:	02200693          	li	a3,34
   13e7e:	577d                	li	a4,-1
   13e80:	4781                	li	a5,0
   13e82:	00000073          	ecall
   13e86:	ee1ff0ef          	jal	ra,0x13d66
   13e8a:	e97ff0ef          	jal	ra,0x13d20
   13e8e:	02055c63          	bgez	a0,0x13ec6
   13e92:	00000023          	sb	zero,0(zero) # 0x0
   13e96:	9002                	ebreak
   13e98:	0006a803          	lw	a6,0(a3) # 0xffffffff80000000
   13e9c:	00681a63          	bne	a6,t1,0x13eb0
   13ea0:	6a9c                	ld	a5,16(a3)
   13ea2:	40f887b3          	sub	a5,a7,a5
   13ea6:	02053803          	ld	a6,32(a0)
   13eaa:	15fd                	addi	a1,a1,-1
   13eac:	96c2                	add	a3,a3,a6
   13eae:	bf89                	j	0x13e00
   13eb0:	01c81763          	bne	a6,t3,0x13ebe
   13eb4:	da6d                	beqz	a2,0x13ea6
   13eb6:	6a9c                	ld	a5,16(a3)
   13eb8:	40f607b3          	sub	a5,a2,a5
   13ebc:	b7ed                	j	0x13ea6
   13ebe:	ffd814e3          	bne	a6,t4,0x13ea6
   13ec2:	8736                	mv	a4,a3
   13ec4:	b7cd                	j	0x13ea6
   13ec6:	60a2                	ld	ra,8(sp)
   13ec8:	0141                	addi	sp,sp,16
   13eca:	8082                	ret
   13ecc:	87aa                	mv	a5,a0
   13ece:	05e00893          	li	a7,94
   13ed2:	00000073          	ecall
   13ed6:	05d00893          	li	a7,93
   13eda:	853e                	mv	a0,a5
   13edc:	bfdd                	j	0x13ed2
   13ede:	82aa                	mv	t0,a0
   13ee0:	852e                	mv	a0,a1
   13ee2:	85b2                	mv	a1,a2
   13ee4:	8636                	mv	a2,a3
   13ee6:	86ba                	mv	a3,a4
   13ee8:	873e                	mv	a4,a5
   13eea:	87c2                	mv	a5,a6
   13eec:	8846                	mv	a6,a7
   13eee:	8896                	mv	a7,t0
   13ef0:	00000073          	ecall
   13ef4:	8082                	ret
   13ef6:	1141                	addi	sp,sp,-16
   13ef8:	e022                	sd	s0,0(sp)
   13efa:	e406                	sd	ra,8(sp)
   13efc:	842a                	mv	s0,a0
   13efe:	e591                	bnez	a1,0x13f0a
   13f00:	8522                	mv	a0,s0
   13f02:	60a2                	ld	ra,8(sp)
   13f04:	6402                	ld	s0,0(sp)
   13f06:	0141                	addi	sp,sp,16
   13f08:	8082                	ret
   13f0a:	87ae                	mv	a5,a1
   13f0c:	862a                	mv	a2,a0
   13f0e:	658c                	ld	a1,8(a1)
   13f10:	6388                	ld	a0,0(a5)
   13f12:	297000ef          	jal	ra,0x149a8
   13f16:	f575                	bnez	a0,0x13f02
   13f18:	b7e5                	j	0x13f00
   13f1a:	7149                	addi	sp,sp,-368
   13f1c:	f2a2                	sd	s0,352(sp)
   13f1e:	fa5a                	sd	s6,304(sp)
   13f20:	f686                	sd	ra,360(sp)
   13f22:	eea6                	sd	s1,344(sp)
   13f24:	eaca                	sd	s2,336(sp)
   13f26:	e6ce                	sd	s3,328(sp)
   13f28:	e2d2                	sd	s4,320(sp)
   13f2a:	fe56                	sd	s5,312(sp)
   13f2c:	f65e                	sd	s7,296(sp)
   13f2e:	f262                	sd	s8,288(sp)
   13f30:	ee66                	sd	s9,280(sp)
   13f32:	ea6a                	sd	s10,272(sp)
   13f34:	0005c783          	lbu	a5,0(a1)
   13f38:	8b2a                	mv	s6,a0
   13f3a:	842e                	mv	s0,a1
   13f3c:	e7a9                	bnez	a5,0x13f86
   13f3e:	00018537          	lui	a0,0x18
   13f42:	c9050513          	addi	a0,a0,-880 # 0x17c90
   13f46:	1d9000ef          	jal	ra,0x1491e
   13f4a:	842a                	mv	s0,a0
   13f4c:	c501                	beqz	a0,0x13f54
   13f4e:	00054783          	lbu	a5,0(a0)
   13f52:	eb95                	bnez	a5,0x13f86
   13f54:	47b1                	li	a5,12
   13f56:	02fb07b3          	mul	a5,s6,a5
   13f5a:	6561                	lui	a0,0x18
   13f5c:	c4850513          	addi	a0,a0,-952 # 0x17c48
   13f60:	953e                	add	a0,a0,a5
   13f62:	1bd000ef          	jal	ra,0x1491e
   13f66:	842a                	mv	s0,a0
   13f68:	c501                	beqz	a0,0x13f70
   13f6a:	00054783          	lbu	a5,0(a0)
   13f6e:	ef81                	bnez	a5,0x13f86
   13f70:	00018537          	lui	a0,0x18
   13f74:	c9850513          	addi	a0,a0,-872 # 0x17c98
   13f78:	1a7000ef          	jal	ra,0x1491e
   13f7c:	842a                	mv	s0,a0
   13f7e:	cd35                	beqz	a0,0x13ffa
   13f80:	00054783          	lbu	a5,0(a0)
   13f84:	cbbd                	beqz	a5,0x13ffa
   13f86:	4901                	li	s2,0
   13f88:	02f00713          	li	a4,47
   13f8c:	46dd                	li	a3,23
   13f8e:	012407b3          	add	a5,s0,s2
   13f92:	0007c783          	lbu	a5,0(a5)
   13f96:	c791                	beqz	a5,0x13fa2
   13f98:	00e78563          	beq	a5,a4,0x13fa2
   13f9c:	0905                	addi	s2,s2,1
   13f9e:	fed918e3          	bne	s2,a3,0x13f8e
   13fa2:	00044783          	lbu	a5,0(s0)
   13fa6:	02e00713          	li	a4,46
   13faa:	04e78d63          	beq	a5,a4,0x14004
   13fae:	01240733          	add	a4,s0,s2
   13fb2:	00074703          	lbu	a4,0(a4)
   13fb6:	e739                	bnez	a4,0x14004
   13fb8:	04300713          	li	a4,67
   13fbc:	00e79563          	bne	a5,a4,0x13fc6
   13fc0:	00144783          	lbu	a5,1(s0)
   13fc4:	cb99                	beqz	a5,0x13fda
   13fc6:	000175b7          	lui	a1,0x17
   13fca:	c0858593          	addi	a1,a1,-1016 # 0x16c08
   13fce:	8522                	mv	a0,s0
   13fd0:	eb6ff0ef          	jal	ra,0x13686
   13fd4:	ed0d                	bnez	a0,0x1400e
   13fd6:	0a0b0c63          	beqz	s6,0x1408e
   13fda:	4481                	li	s1,0
   13fdc:	70b6                	ld	ra,360(sp)
   13fde:	7416                	ld	s0,352(sp)
   13fe0:	8526                	mv	a0,s1
   13fe2:	6956                	ld	s2,336(sp)
   13fe4:	64f6                	ld	s1,344(sp)
   13fe6:	69b6                	ld	s3,328(sp)
   13fe8:	6a16                	ld	s4,320(sp)
   13fea:	7af2                	ld	s5,312(sp)
   13fec:	7b52                	ld	s6,304(sp)
   13fee:	7bb2                	ld	s7,296(sp)
   13ff0:	7c12                	ld	s8,288(sp)
   13ff2:	6cf2                	ld	s9,280(sp)
   13ff4:	6d52                	ld	s10,272(sp)
   13ff6:	6175                	addi	sp,sp,368
   13ff8:	8082                	ret
   13ffa:	00017437          	lui	s0,0x17
   13ffe:	c0840413          	addi	s0,s0,-1016 # 0x16c08
   14002:	b751                	j	0x13f86
   14004:	00017437          	lui	s0,0x17
   14008:	c0840413          	addi	s0,s0,-1016 # 0x16c08
   1400c:	bf55                	j	0x13fc0
   1400e:	000185b7          	lui	a1,0x18
   14012:	ca058593          	addi	a1,a1,-864 # 0x17ca0
   14016:	8522                	mv	a0,s0
   14018:	e6eff0ef          	jal	ra,0x13686
   1401c:	dd4d                	beqz	a0,0x13fd6
   1401e:	9101b483          	ld	s1,-1776(gp)
   14022:	e0c1                	bnez	s1,0x140a2
   14024:	90818513          	addi	a0,gp,-1784
   14028:	f04ff0ef          	jal	ra,0x1372c
   1402c:	9101b483          	ld	s1,-1776(gp)
   14030:	e0c9                	bnez	s1,0x140b2
   14032:	7101a783          	lw	a5,1808(gp)
   14036:	0c079f63          	bnez	a5,0x14114
   1403a:	00018537          	lui	a0,0x18
   1403e:	ca850513          	addi	a0,a0,-856 # 0x17ca8
   14042:	0dd000ef          	jal	ra,0x1491e
   14046:	84aa                	mv	s1,a0
   14048:	c571                	beqz	a0,0x14114
   1404a:	0fe00b93          	li	s7,254
   1404e:	0a1c                	addi	a5,sp,272
   14050:	412b8bb3          	sub	s7,s7,s2
   14054:	02f00c13          	li	s8,47
   14058:	01278cb3          	add	s9,a5,s2
   1405c:	0004c783          	lbu	a5,0(s1)
   14060:	cbd5                	beqz	a5,0x14114
   14062:	03a00593          	li	a1,58
   14066:	8526                	mv	a0,s1
   14068:	d9eff0ef          	jal	ra,0x13606
   1406c:	00054783          	lbu	a5,0(a0)
   14070:	409509b3          	sub	s3,a0,s1
   14074:	8d2a                	mv	s10,a0
   14076:	00f037b3          	snez	a5,a5
   1407a:	40f989b3          	sub	s3,s3,a5
   1407e:	0579e763          	bltu	s3,s7,0x140cc
   14082:	000d4483          	lbu	s1,0(s10)
   14086:	009034b3          	snez	s1,s1
   1408a:	94ea                	add	s1,s1,s10
   1408c:	bfc1                	j	0x1405c
   1408e:	00144703          	lbu	a4,1(s0)
   14092:	02e00793          	li	a5,46
   14096:	f4f712e3          	bne	a4,a5,0x13fda
   1409a:	64e1                	lui	s1,0x18
   1409c:	d3048493          	addi	s1,s1,-720 # 0x17d30
   140a0:	bf35                	j	0x13fdc
   140a2:	01048593          	addi	a1,s1,16
   140a6:	8522                	mv	a0,s0
   140a8:	ddeff0ef          	jal	ra,0x13686
   140ac:	d905                	beqz	a0,0x13fdc
   140ae:	7484                	ld	s1,40(s1)
   140b0:	bf8d                	j	0x14022
   140b2:	01048593          	addi	a1,s1,16
   140b6:	8522                	mv	a0,s0
   140b8:	dceff0ef          	jal	ra,0x13686
   140bc:	e511                	bnez	a0,0x140c8
   140be:	90818513          	addi	a0,gp,-1784
   140c2:	eb2ff0ef          	jal	ra,0x13774
   140c6:	bf19                	j	0x13fdc
   140c8:	7484                	ld	s1,40(s1)
   140ca:	b79d                	j	0x14030
   140cc:	864e                	mv	a2,s3
   140ce:	85a6                	mv	a1,s1
   140d0:	0808                	addi	a0,sp,16
   140d2:	8f8ff0ef          	jal	ra,0x131ca
   140d6:	0a1c                	addi	a5,sp,272
   140d8:	97ce                	add	a5,a5,s3
   140da:	f1878023          	sb	s8,-256(a5)
   140de:	00198513          	addi	a0,s3,1
   140e2:	081c                	addi	a5,sp,16
   140e4:	864a                	mv	a2,s2
   140e6:	85a2                	mv	a1,s0
   140e8:	953e                	add	a0,a0,a5
   140ea:	8e0ff0ef          	jal	ra,0x131ca
   140ee:	99e6                	add	s3,s3,s9
   140f0:	002c                	addi	a1,sp,8
   140f2:	0808                	addi	a0,sp,16
   140f4:	f00980a3          	sb	zero,-255(s3)
   140f8:	7ac000ef          	jal	ra,0x148a4
   140fc:	89aa                	mv	s3,a0
   140fe:	d151                	beqz	a0,0x14082
   14100:	03000513          	li	a0,48
   14104:	cb8fd0ef          	jal	ra,0x115bc
   14108:	84aa                	mv	s1,a0
   1410a:	65a2                	ld	a1,8(sp)
   1410c:	e11d                	bnez	a0,0x14132
   1410e:	854e                	mv	a0,s3
   14110:	aa1fd0ef          	jal	ra,0x11bb0
   14114:	03000513          	li	a0,48
   14118:	ca4fd0ef          	jal	ra,0x115bc
   1411c:	84aa                	mv	s1,a0
   1411e:	cd05                	beqz	a0,0x14156
   14120:	67e1                	lui	a5,0x18
   14122:	d307b703          	ld	a4,-720(a5) # 0x17d30
   14126:	d3078793          	addi	a5,a5,-720
   1412a:	679c                	ld	a5,8(a5)
   1412c:	e118                	sd	a4,0(a0)
   1412e:	e51c                	sd	a5,8(a0)
   14130:	a021                	j	0x14138
   14132:	01353023          	sd	s3,0(a0)
   14136:	e50c                	sd	a1,8(a0)
   14138:	864a                	mv	a2,s2
   1413a:	85a2                	mv	a1,s0
   1413c:	01048513          	addi	a0,s1,16
   14140:	9926                	add	s2,s2,s1
   14142:	888ff0ef          	jal	ra,0x131ca
   14146:	00090823          	sb	zero,16(s2)
   1414a:	9101b783          	ld	a5,-1776(gp)
   1414e:	f49c                	sd	a5,40(s1)
   14150:	9091b823          	sd	s1,-1776(gp)
   14154:	b7ad                	j	0x140be
   14156:	f60b14e3          	bnez	s6,0x140be
   1415a:	64e1                	lui	s1,0x18
   1415c:	d3048493          	addi	s1,s1,-720 # 0x17d30
   14160:	bfb9                	j	0x140be
   14162:	70818793          	addi	a5,gp,1800
   14166:	7f94                	ld	a3,56(a5)
   14168:	577d                	li	a4,-1
   1416a:	6110                	ld	a2,0(a0)
   1416c:	7179                	addi	sp,sp,-48
   1416e:	8305                	srli	a4,a4,0x1
   14170:	f406                	sd	ra,40(sp)
   14172:	f022                	sd	s0,32(sp)
   14174:	ec26                	sd	s1,24(sp)
   14176:	e84a                	sd	s2,16(sp)
   14178:	8f15                	sub	a4,a4,a3
   1417a:	00c77863          	bgeu	a4,a2,0x1418a
   1417e:	b79fc0ef          	jal	ra,0x10cf6
   14182:	47b1                	li	a5,12
   14184:	c11c                	sw	a5,0(a0)
   14186:	4501                	li	a0,0
   14188:	a04d                	j	0x1422a
   1418a:	40c007b3          	neg	a5,a2
   1418e:	16fd                	addi	a3,a3,-1
   14190:	8efd                	and	a3,a3,a5
   14192:	00c687b3          	add	a5,a3,a2
   14196:	9201b703          	ld	a4,-1760(gp)
   1419a:	892a                	mv	s2,a0
   1419c:	70818813          	addi	a6,gp,1800
   141a0:	ef19                	bnez	a4,0x141be
   141a2:	0d600893          	li	a7,214
   141a6:	4501                	li	a0,0
   141a8:	00000073          	ecall
   141ac:	03883703          	ld	a4,56(a6)
   141b0:	40a00633          	neg	a2,a0
   141b4:	177d                	addi	a4,a4,-1
   141b6:	8f71                	and	a4,a4,a2
   141b8:	972a                	add	a4,a4,a0
   141ba:	92e1b023          	sd	a4,-1760(gp)
   141be:	9201b703          	ld	a4,-1760(gp)
   141c2:	fff74613          	not	a2,a4
   141c6:	06c7f863          	bgeu	a5,a2,0x14236
   141ca:	01083583          	ld	a1,16(a6)
   141ce:	008008b7          	lui	a7,0x800
   141d2:	00f70533          	add	a0,a4,a5
   141d6:	862e                	mv	a2,a1
   141d8:	0115f463          	bgeu	a1,a7,0x141e0
   141dc:	00800637          	lui	a2,0x800
   141e0:	ff8008b7          	lui	a7,0xff800
   141e4:	9646                	add	a2,a2,a7
   141e6:	00a67463          	bgeu	a2,a0,0x141ee
   141ea:	04b76663          	bltu	a4,a1,0x14236
   141ee:	002c                	addi	a1,sp,8
   141f0:	008008b7          	lui	a7,0x800
   141f4:	862e                	mv	a2,a1
   141f6:	0115f463          	bgeu	a1,a7,0x141fe
   141fa:	00800637          	lui	a2,0x800
   141fe:	ff8008b7          	lui	a7,0xff800
   14202:	9646                	add	a2,a2,a7
   14204:	00a67463          	bgeu	a2,a0,0x1420c
   14208:	02b76763          	bltu	a4,a1,0x14236
   1420c:	0d600893          	li	a7,214
   14210:	00000073          	ecall
   14214:	9201b703          	ld	a4,-1760(gp)
   14218:	00f70633          	add	a2,a4,a5
   1421c:	00c51d63          	bne	a0,a2,0x14236
   14220:	92a1b023          	sd	a0,-1760(gp)
   14224:	00f93023          	sd	a5,0(s2)
   14228:	853a                	mv	a0,a4
   1422a:	70a2                	ld	ra,40(sp)
   1422c:	7402                	ld	s0,32(sp)
   1422e:	64e2                	ld	s1,24(sp)
   14230:	6942                	ld	s2,16(sp)
   14232:	6145                	addi	sp,sp,48
   14234:	8082                	ret
   14236:	9181a403          	lw	s0,-1768(gp)
   1423a:	0014571b          	srliw	a4,s0,0x1
   1423e:	03883403          	ld	s0,56(a6)
   14242:	00e41433          	sll	s0,s0,a4
   14246:	00f47363          	bgeu	s0,a5,0x1424c
   1424a:	843e                	mv	s0,a5
   1424c:	4781                	li	a5,0
   1424e:	577d                	li	a4,-1
   14250:	02200693          	li	a3,34
   14254:	460d                	li	a2,3
   14256:	85a2                	mv	a1,s0
   14258:	4501                	li	a0,0
   1425a:	881fd0ef          	jal	ra,0x11ada
   1425e:	57fd                	li	a5,-1
   14260:	f2f503e3          	beq	a0,a5,0x14186
   14264:	9181a783          	lw	a5,-1768(gp)
   14268:	00893023          	sd	s0,0(s2)
   1426c:	2785                	addiw	a5,a5,1
   1426e:	90f1ac23          	sw	a5,-1768(gp)
   14272:	bf65                	j	0x1422a
   14274:	67a1                	lui	a5,0x8
   14276:	0305d713          	srli	a4,a1,0x30
   1427a:	17fd                	addi	a5,a5,-1
   1427c:	56fd                	li	a3,-1
   1427e:	82c1                	srli	a3,a3,0x10
   14280:	8f7d                	and	a4,a4,a5
   14282:	862a                	mv	a2,a0
   14284:	8df5                	and	a1,a1,a3
   14286:	e711                	bnez	a4,0x14292
   14288:	8dc9                	or	a1,a1,a0
   1428a:	00b03533          	snez	a0,a1
   1428e:	0509                	addi	a0,a0,2
   14290:	8082                	ret
   14292:	4511                	li	a0,4
   14294:	00f71563          	bne	a4,a5,0x1429e
   14298:	8dd1                	or	a1,a1,a2
   1429a:	0015b513          	seqz	a0,a1
   1429e:	8082                	ret
   142a0:	03f5d513          	srli	a0,a1,0x3f
   142a4:	8082                	ret
   142a6:	66a1                	lui	a3,0x8
   142a8:	1101                	addi	sp,sp,-32
   142aa:	0305d793          	srli	a5,a1,0x30
   142ae:	16fd                	addi	a3,a3,-1
   142b0:	e822                	sd	s0,16(sp)
   142b2:	e426                	sd	s1,8(sp)
   142b4:	e04a                	sd	s2,0(sp)
   142b6:	ec06                	sd	ra,24(sp)
   142b8:	00d7f733          	and	a4,a5,a3
   142bc:	892a                	mv	s2,a0
   142be:	842e                	mv	s0,a1
   142c0:	84b2                	mv	s1,a2
   142c2:	e339                	bnez	a4,0x14308
   142c4:	4601                	li	a2,0
   142c6:	4681                	li	a3,0
   142c8:	5cc010ef          	jal	ra,0x15894
   142cc:	c91d                	beqz	a0,0x14302
   142ce:	000187b7          	lui	a5,0x18
   142d2:	cc87b683          	ld	a3,-824(a5) # 0x17cc8
   142d6:	4601                	li	a2,0
   142d8:	854a                	mv	a0,s2
   142da:	85a2                	mv	a1,s0
   142dc:	654010ef          	jal	ra,0x15930
   142e0:	8626                	mv	a2,s1
   142e2:	fc5ff0ef          	jal	ra,0x142a6
   142e6:	409c                	lw	a5,0(s1)
   142e8:	892a                	mv	s2,a0
   142ea:	842e                	mv	s0,a1
   142ec:	f887879b          	addiw	a5,a5,-120
   142f0:	c09c                	sw	a5,0(s1)
   142f2:	85a2                	mv	a1,s0
   142f4:	60e2                	ld	ra,24(sp)
   142f6:	6442                	ld	s0,16(sp)
   142f8:	854a                	mv	a0,s2
   142fa:	64a2                	ld	s1,8(sp)
   142fc:	6902                	ld	s2,0(sp)
   142fe:	6105                	addi	sp,sp,32
   14300:	8082                	ret
   14302:	0004a023          	sw	zero,0(s1)
   14306:	b7f5                	j	0x142f2
   14308:	2701                	sext.w	a4,a4
   1430a:	fed704e3          	beq	a4,a3,0x142f2
   1430e:	76f1                	lui	a3,0xffffc
   14310:	2689                	addiw	a3,a3,2
   14312:	9f35                	addw	a4,a4,a3
   14314:	c218                	sw	a4,0(a2)
   14316:	7761                	lui	a4,0xffff8
   14318:	8ff9                	and	a5,a5,a4
   1431a:	6711                	lui	a4,0x4
   1431c:	1779                	addi	a4,a4,-2
   1431e:	8fd9                	or	a5,a5,a4
   14320:	577d                	li	a4,-1
   14322:	8341                	srli	a4,a4,0x10
   14324:	17c2                	slli	a5,a5,0x30
   14326:	00e5f433          	and	s0,a1,a4
   1432a:	8c5d                	or	s0,s0,a5
   1432c:	b7d9                	j	0x142f2
   1432e:	c911                	beqz	a0,0x14342
   14330:	1141                	addi	sp,sp,-16
   14332:	4601                	li	a2,0
   14334:	e406                	sd	ra,8(sp)
   14336:	019000ef          	jal	ra,0x14b4e
   1433a:	60a2                	ld	ra,8(sp)
   1433c:	2501                	sext.w	a0,a0
   1433e:	0141                	addi	sp,sp,16
   14340:	8082                	ret
   14342:	4501                	li	a0,0
   14344:	8082                	ret
   14346:	862a                	mv	a2,a0
   14348:	08700893          	li	a7,135
   1434c:	4501                	li	a0,0
   1434e:	86818593          	addi	a1,gp,-1944
   14352:	46a1                	li	a3,8
   14354:	00000073          	ecall
   14358:	8082                	ret
   1435a:	862a                	mv	a2,a0
   1435c:	08700893          	li	a7,135
   14360:	4501                	li	a0,0
   14362:	86018593          	addi	a1,gp,-1952
   14366:	46a1                	li	a3,8
   14368:	00000073          	ecall
   1436c:	8082                	ret
   1436e:	85aa                	mv	a1,a0
   14370:	08700893          	li	a7,135
   14374:	4509                	li	a0,2
   14376:	4601                	li	a2,0
   14378:	46a1                	li	a3,8
   1437a:	00000073          	ecall
   1437e:	8082                	ret
   14380:	4621                	li	a2,8
   14382:	92818593          	addi	a1,gp,-1752
   14386:	e45fe06f          	j	0x131ca
   1438a:	7159                	addi	sp,sp,-112
   1438c:	eca6                	sd	s1,88(sp)
   1438e:	e8ca                	sd	s2,80(sp)
   14390:	f486                	sd	ra,104(sp)
   14392:	f0a2                	sd	s0,96(sp)
   14394:	892a                	mv	s2,a0
   14396:	84b2                	mv	s1,a2
   14398:	c5cd                	beqz	a1,0x14442
   1439a:	619c                	ld	a5,0(a1)
   1439c:	4705                	li	a4,1
   1439e:	842e                	mv	s0,a1
   143a0:	06f77a63          	bgeu	a4,a5,0x14414
   143a4:	fff5079b          	addiw	a5,a0,-1
   143a8:	863e                	mv	a2,a5
   143aa:	8399                	srli	a5,a5,0x6
   143ac:	00c71733          	sll	a4,a4,a2
   143b0:	078e                	slli	a5,a5,0x3
   143b2:	92818693          	addi	a3,gp,-1752
   143b6:	0007059b          	sext.w	a1,a4
   143ba:	97b6                	add	a5,a5,a3
   143bc:	c991                	beqz	a1,0x143d0
   143be:	1007a6af          	lr.w	a3,(a5)
   143c2:	2681                	sext.w	a3,a3
   143c4:	8ecd                	or	a3,a3,a1
   143c6:	18d7a62f          	sc.w	a2,a3,(a5)
   143ca:	0006069b          	sext.w	a3,a2
   143ce:	fae5                	bnez	a3,0x143be
   143d0:	9701                	srai	a4,a4,0x20
   143d2:	cf01                	beqz	a4,0x143ea
   143d4:	0791                	addi	a5,a5,4
   143d6:	2701                	sext.w	a4,a4
   143d8:	1007a6af          	lr.w	a3,(a5)
   143dc:	2681                	sext.w	a3,a3
   143de:	8ed9                	or	a3,a3,a4
   143e0:	18d7a62f          	sc.w	a2,a3,(a5)
   143e4:	0006069b          	sext.w	a3,a2
   143e8:	fae5                	bnez	a3,0x143d8
   143ea:	70c1a783          	lw	a5,1804(gp)
   143ee:	9301a683          	lw	a3,-1744(gp)
   143f2:	8fd5                	or	a5,a5,a3
   143f4:	2781                	sext.w	a5,a5
   143f6:	ef99                	bnez	a5,0x14414
   143f8:	478d                	li	a5,3
   143fa:	1782                	slli	a5,a5,0x20
   143fc:	e43e                	sd	a5,8(sp)
   143fe:	08700893          	li	a7,135
   14402:	4505                	li	a0,1
   14404:	002c                	addi	a1,sp,8
   14406:	4601                	li	a2,0
   14408:	46a1                	li	a3,8
   1440a:	00000073          	ecall
   1440e:	4785                	li	a5,1
   14410:	92f1a823          	sw	a5,-1744(gp)
   14414:	601c                	ld	a5,0(s0)
   14416:	04000737          	lui	a4,0x4000
   1441a:	e83e                	sd	a5,16(sp)
   1441c:	08842783          	lw	a5,136(s0)
   14420:	8f5d                	or	a4,a4,a5
   14422:	ec3a                	sd	a4,24(sp)
   14424:	8b91                	andi	a5,a5,4
   14426:	e3a5                	bnez	a5,0x14486
   14428:	000157b7          	lui	a5,0x15
   1442c:	c4c78793          	addi	a5,a5,-948 # 0x14c4c
   14430:	00840593          	addi	a1,s0,8
   14434:	4621                	li	a2,8
   14436:	1028                	addi	a0,sp,40
   14438:	f03e                	sd	a5,32(sp)
   1443a:	d91fe0ef          	jal	ra,0x131ca
   1443e:	080c                	addi	a1,sp,16
   14440:	e011                	bnez	s0,0x14444
   14442:	4581                	li	a1,0
   14444:	4601                	li	a2,0
   14446:	c091                	beqz	s1,0x1444a
   14448:	1810                	addi	a2,sp,48
   1444a:	08600893          	li	a7,134
   1444e:	854a                	mv	a0,s2
   14450:	46a1                	li	a3,8
   14452:	00000073          	ecall
   14456:	9a7fc0ef          	jal	ra,0x10dfc
   1445a:	547d                	li	s0,-1
   1445c:	ed11                	bnez	a0,0x14478
   1445e:	4401                	li	s0,0
   14460:	cc81                	beqz	s1,0x14478
   14462:	77c2                	ld	a5,48(sp)
   14464:	4621                	li	a2,8
   14466:	00ac                	addi	a1,sp,72
   14468:	e09c                	sd	a5,0(s1)
   1446a:	77e2                	ld	a5,56(sp)
   1446c:	00848513          	addi	a0,s1,8
   14470:	08f4a423          	sw	a5,136(s1)
   14474:	d57fe0ef          	jal	ra,0x131ca
   14478:	8522                	mv	a0,s0
   1447a:	70a6                	ld	ra,104(sp)
   1447c:	7406                	ld	s0,96(sp)
   1447e:	64e6                	ld	s1,88(sp)
   14480:	6946                	ld	s2,80(sp)
   14482:	6165                	addi	sp,sp,112
   14484:	8082                	ret
   14486:	000157b7          	lui	a5,0x15
   1448a:	c4c78793          	addi	a5,a5,-948 # 0x14c4c
   1448e:	b74d                	j	0x14430
   14490:	fe05069b          	addiw	a3,a0,-32
   14494:	4709                	li	a4,2
   14496:	00d77a63          	bgeu	a4,a3,0x144aa
   1449a:	fff5079b          	addiw	a5,a0,-1
   1449e:	03f00713          	li	a4,63
   144a2:	00f76463          	bltu	a4,a5,0x144aa
   144a6:	ee5ff06f          	j	0x1438a
   144aa:	1141                	addi	sp,sp,-16
   144ac:	e406                	sd	ra,8(sp)
   144ae:	849fc0ef          	jal	ra,0x10cf6
   144b2:	60a2                	ld	ra,8(sp)
   144b4:	47d9                	li	a5,22
   144b6:	c11c                	sw	a5,0(a0)
   144b8:	557d                	li	a0,-1
   144ba:	0141                	addi	sp,sp,16
   144bc:	8082                	ret
   144be:	7179                	addi	sp,sp,-48
   144c0:	f406                	sd	ra,40(sp)
   144c2:	f022                	sd	s0,32(sp)
   144c4:	ec26                	sd	s1,24(sp)
   144c6:	e84a                	sd	s2,16(sp)
   144c8:	e44e                	sd	s3,8(sp)
   144ca:	e052                	sd	s4,0(sp)
   144cc:	8792                	mv	a5,tp
   144ce:	f307a983          	lw	s3,-208(a5)
   144d2:	08c52783          	lw	a5,140(a0)
   144d6:	2781                	sext.w	a5,a5
   144d8:	05378363          	beq	a5,s3,0x1451e
   144dc:	4401                	li	s0,0
   144de:	08c50913          	addi	s2,a0,140
   144e2:	4a01                	li	s4,0
   144e4:	09050493          	addi	s1,a0,144
   144e8:	87a2                	mv	a5,s0
   144ea:	1009262f          	lr.w	a2,(s2)
   144ee:	01461563          	bne	a2,s4,0x144f8
   144f2:	193927af          	sc.w	a5,s3,(s2)
   144f6:	fbf5                	bnez	a5,0x144ea
   144f8:	2601                	sext.w	a2,a2
   144fa:	0007841b          	sext.w	s0,a5
   144fe:	ea11                	bnez	a2,0x14512
   14500:	4505                	li	a0,1
   14502:	70a2                	ld	ra,40(sp)
   14504:	7402                	ld	s0,32(sp)
   14506:	64e2                	ld	s1,24(sp)
   14508:	6942                	ld	s2,16(sp)
   1450a:	69a2                	ld	s3,8(sp)
   1450c:	6a02                	ld	s4,0(sp)
   1450e:	6145                	addi	sp,sp,48
   14510:	8082                	ret
   14512:	4685                	li	a3,1
   14514:	85a6                	mv	a1,s1
   14516:	854a                	mv	a0,s2
   14518:	a9eff0ef          	jal	ra,0x137b6
   1451c:	b7f1                	j	0x144e8
   1451e:	4501                	li	a0,0
   14520:	b7cd                	j	0x14502
   14522:	0330000f          	fence	rw,rw
   14526:	08052623          	sw	zero,140(a0)
   1452a:	0330000f          	fence	rw,rw
   1452e:	09052783          	lw	a5,144(a0)
   14532:	2781                	sext.w	a5,a5
   14534:	c39d                	beqz	a5,0x1455a
   14536:	08c50793          	addi	a5,a0,140
   1453a:	06200893          	li	a7,98
   1453e:	853e                	mv	a0,a5
   14540:	08100593          	li	a1,129
   14544:	4605                	li	a2,1
   14546:	00000073          	ecall
   1454a:	fda00713          	li	a4,-38
   1454e:	00e51663          	bne	a0,a4,0x1455a
   14552:	853e                	mv	a0,a5
   14554:	4585                	li	a1,1
   14556:	00000073          	ecall
   1455a:	8082                	ret
   1455c:	8082                	ret
   1455e:	5d28                	lw	a0,120(a0)
   14560:	1141                	addi	sp,sp,-16
   14562:	e406                	sd	ra,8(sp)
   14564:	eb6ff0ef          	jal	ra,0x13c1a
   14568:	03900893          	li	a7,57
   1456c:	00000073          	ecall
   14570:	88dfc0ef          	jal	ra,0x10dfc
   14574:	60a2                	ld	ra,8(sp)
   14576:	2501                	sext.w	a0,a0
   14578:	0141                	addi	sp,sp,16
   1457a:	8082                	ret
   1457c:	03e00893          	li	a7,62
   14580:	5d28                	lw	a0,120(a0)
   14582:	00000073          	ecall
   14586:	877fc06f          	j	0x10dfc
   1458a:	1101                	addi	sp,sp,-32
   1458c:	00015737          	lui	a4,0x15
   14590:	c5470713          	addi	a4,a4,-940 # 0x14c54
   14594:	ec06                	sd	ra,24(sp)
   14596:	e538                	sd	a4,72(a0)
   14598:	4118                	lw	a4,0(a0)
   1459a:	87aa                	mv	a5,a0
   1459c:	86ae                	mv	a3,a1
   1459e:	04077713          	andi	a4,a4,64
   145a2:	8832                	mv	a6,a2
   145a4:	ef09                	bnez	a4,0x145be
   145a6:	6595                	lui	a1,0x5
   145a8:	48f5                	li	a7,29
   145aa:	5d28                	lw	a0,120(a0)
   145ac:	41358593          	addi	a1,a1,1043 # 0x5413
   145b0:	0030                	addi	a2,sp,8
   145b2:	00000073          	ecall
   145b6:	c501                	beqz	a0,0x145be
   145b8:	577d                	li	a4,-1
   145ba:	08e785a3          	sb	a4,139(a5)
   145be:	8642                	mv	a2,a6
   145c0:	85b6                	mv	a1,a3
   145c2:	853e                	mv	a0,a5
   145c4:	690000ef          	jal	ra,0x14c54
   145c8:	60e2                	ld	ra,24(sp)
   145ca:	6105                	addi	sp,sp,32
   145cc:	8082                	ret
   145ce:	721c                	ld	a5,32(a2)
   145d0:	7179                	addi	sp,sp,-48
   145d2:	ec26                	sd	s1,24(sp)
   145d4:	e84a                	sd	s2,16(sp)
   145d6:	e44e                	sd	s3,8(sp)
   145d8:	f406                	sd	ra,40(sp)
   145da:	f022                	sd	s0,32(sp)
   145dc:	89aa                	mv	s3,a0
   145de:	892e                	mv	s2,a1
   145e0:	84b2                	mv	s1,a2
   145e2:	c395                	beqz	a5,0x14606
   145e4:	709c                	ld	a5,32(s1)
   145e6:	7498                	ld	a4,40(s1)
   145e8:	8f99                	sub	a5,a5,a4
   145ea:	0327f463          	bgeu	a5,s2,0x14612
   145ee:	7402                	ld	s0,32(sp)
   145f0:	0484b303          	ld	t1,72(s1)
   145f4:	70a2                	ld	ra,40(sp)
   145f6:	864a                	mv	a2,s2
   145f8:	85ce                	mv	a1,s3
   145fa:	6942                	ld	s2,16(sp)
   145fc:	69a2                	ld	s3,8(sp)
   145fe:	8526                	mv	a0,s1
   14600:	64e2                	ld	s1,24(sp)
   14602:	6145                	addi	sp,sp,48
   14604:	8302                	jr	t1
   14606:	8532                	mv	a0,a2
   14608:	6f4000ef          	jal	ra,0x14cfc
   1460c:	dd61                	beqz	a0,0x145e4
   1460e:	4501                	li	a0,0
   14610:	a005                	j	0x14630
   14612:	08b48783          	lb	a5,139(s1)
   14616:	844a                	mv	s0,s2
   14618:	4729                	li	a4,10
   1461a:	0207d363          	bgez	a5,0x14640
   1461e:	7488                	ld	a0,40(s1)
   14620:	8622                	mv	a2,s0
   14622:	85ce                	mv	a1,s3
   14624:	ba7fe0ef          	jal	ra,0x131ca
   14628:	749c                	ld	a5,40(s1)
   1462a:	854a                	mv	a0,s2
   1462c:	943e                	add	s0,s0,a5
   1462e:	f480                	sd	s0,40(s1)
   14630:	70a2                	ld	ra,40(sp)
   14632:	7402                	ld	s0,32(sp)
   14634:	64e2                	ld	s1,24(sp)
   14636:	6942                	ld	s2,16(sp)
   14638:	69a2                	ld	s3,8(sp)
   1463a:	6145                	addi	sp,sp,48
   1463c:	8082                	ret
   1463e:	843e                	mv	s0,a5
   14640:	c405                	beqz	s0,0x14668
   14642:	fff40793          	addi	a5,s0,-1
   14646:	00f986b3          	add	a3,s3,a5
   1464a:	0006c683          	lbu	a3,0(a3) # 0xffffffffffffc000
   1464e:	fee698e3          	bne	a3,a4,0x1463e
   14652:	64bc                	ld	a5,72(s1)
   14654:	8622                	mv	a2,s0
   14656:	85ce                	mv	a1,s3
   14658:	8526                	mv	a0,s1
   1465a:	9782                	jalr	a5
   1465c:	fc856ae3          	bltu	a0,s0,0x14630
   14660:	99a2                	add	s3,s3,s0
   14662:	40890433          	sub	s0,s2,s0
   14666:	bf65                	j	0x1461e
   14668:	844a                	mv	s0,s2
   1466a:	bf55                	j	0x1461e
   1466c:	7139                	addi	sp,sp,-64
   1466e:	f822                	sd	s0,48(sp)
   14670:	f426                	sd	s1,40(sp)
   14672:	f04a                	sd	s2,32(sp)
   14674:	ec4e                	sd	s3,24(sp)
   14676:	e852                	sd	s4,16(sp)
   14678:	fc06                	sd	ra,56(sp)
   1467a:	e456                	sd	s5,8(sp)
   1467c:	89aa                	mv	s3,a0
   1467e:	892e                	mv	s2,a1
   14680:	84b6                	mv	s1,a3
   14682:	02c58a33          	mul	s4,a1,a2
   14686:	4401                	li	s0,0
   14688:	c191                	beqz	a1,0x1468c
   1468a:	8432                	mv	s0,a2
   1468c:	08c4a783          	lw	a5,140(s1)
   14690:	4a81                	li	s5,0
   14692:	02079713          	slli	a4,a5,0x20
   14696:	00074663          	bltz	a4,0x146a2
   1469a:	8526                	mv	a0,s1
   1469c:	e23ff0ef          	jal	ra,0x144be
   146a0:	8aaa                	mv	s5,a0
   146a2:	854e                	mv	a0,s3
   146a4:	8626                	mv	a2,s1
   146a6:	85d2                	mv	a1,s4
   146a8:	f27ff0ef          	jal	ra,0x145ce
   146ac:	89aa                	mv	s3,a0
   146ae:	000a8563          	beqz	s5,0x146b8
   146b2:	8526                	mv	a0,s1
   146b4:	e6fff0ef          	jal	ra,0x14522
   146b8:	013a0463          	beq	s4,s3,0x146c0
   146bc:	0329d433          	divu	s0,s3,s2
   146c0:	8522                	mv	a0,s0
   146c2:	70e2                	ld	ra,56(sp)
   146c4:	7442                	ld	s0,48(sp)
   146c6:	74a2                	ld	s1,40(sp)
   146c8:	7902                	ld	s2,32(sp)
   146ca:	69e2                	ld	s3,24(sp)
   146cc:	6a42                	ld	s4,16(sp)
   146ce:	6aa2                	ld	s5,8(sp)
   146d0:	6121                	addi	sp,sp,64
   146d2:	8082                	ret
   146d4:	02000613          	li	a2,32
   146d8:	4711                	li	a4,4
   146da:	00054783          	lbu	a5,0(a0)
   146de:	02c78563          	beq	a5,a2,0x14708
   146e2:	ff77869b          	addiw	a3,a5,-9
   146e6:	02d77163          	bgeu	a4,a3,0x14708
   146ea:	02b00713          	li	a4,43
   146ee:	00e78f63          	beq	a5,a4,0x1470c
   146f2:	02d00713          	li	a4,45
   146f6:	4681                	li	a3,0
   146f8:	00e79463          	bne	a5,a4,0x14700
   146fc:	4685                	li	a3,1
   146fe:	0505                	addi	a0,a0,1
   14700:	4781                	li	a5,0
   14702:	4625                	li	a2,9
   14704:	4829                	li	a6,10
   14706:	a809                	j	0x14718
   14708:	0505                	addi	a0,a0,1
   1470a:	bfc1                	j	0x146da
   1470c:	4681                	li	a3,0
   1470e:	bfc5                	j	0x146fe
   14710:	02f807bb          	mulw	a5,a6,a5
   14714:	0505                	addi	a0,a0,1
   14716:	9f99                	subw	a5,a5,a4
   14718:	00054703          	lbu	a4,0(a0)
   1471c:	fd07059b          	addiw	a1,a4,-48
   14720:	872e                	mv	a4,a1
   14722:	feb677e3          	bgeu	a2,a1,0x14710
   14726:	e299                	bnez	a3,0x1472c
   14728:	40f007bb          	negw	a5,a5
   1472c:	853e                	mv	a0,a5
   1472e:	8082                	ret
   14730:	0ff5f593          	zext.b	a1,a1
   14734:	00757793          	andi	a5,a0,7
   14738:	cb91                	beqz	a5,0x1474c
   1473a:	c635                	beqz	a2,0x147a6
   1473c:	00054783          	lbu	a5,0(a0)
   14740:	00b79363          	bne	a5,a1,0x14746
   14744:	8082                	ret
   14746:	0505                	addi	a0,a0,1
   14748:	167d                	addi	a2,a2,-1
   1474a:	b7ed                	j	0x14734
   1474c:	ce29                	beqz	a2,0x147a6
   1474e:	00054783          	lbu	a5,0(a0)
   14752:	04b78b63          	beq	a5,a1,0x147a8
   14756:	000197b7          	lui	a5,0x19
   1475a:	1307b683          	ld	a3,304(a5) # 0x19130
   1475e:	000197b7          	lui	a5,0x19
   14762:	1387b883          	ld	a7,312(a5) # 0x19138
   14766:	02d586b3          	mul	a3,a1,a3
   1476a:	000197b7          	lui	a5,0x19
   1476e:	1407b803          	ld	a6,320(a5) # 0x19140
   14772:	431d                	li	t1,7
   14774:	00c37c63          	bgeu	t1,a2,0x1478c
   14778:	611c                	ld	a5,0(a0)
   1477a:	8fb5                	xor	a5,a5,a3
   1477c:	01178733          	add	a4,a5,a7
   14780:	fff7c793          	not	a5,a5
   14784:	8ff9                	and	a5,a5,a4
   14786:	0107f7b3          	and	a5,a5,a6
   1478a:	c399                	beqz	a5,0x14790
   1478c:	962a                	add	a2,a2,a0
   1478e:	a029                	j	0x14798
   14790:	0521                	addi	a0,a0,8
   14792:	1661                	addi	a2,a2,-8
   14794:	b7c5                	j	0x14774
   14796:	0505                	addi	a0,a0,1
   14798:	00c50763          	beq	a0,a2,0x147a6
   1479c:	00054783          	lbu	a5,0(a0)
   147a0:	feb79be3          	bne	a5,a1,0x14796
   147a4:	8082                	ret
   147a6:	4501                	li	a0,0
   147a8:	8082                	ret
   147aa:	0ff5f593          	zext.b	a1,a1
   147ae:	962a                	add	a2,a2,a0
   147b0:	00c51463          	bne	a0,a2,0x147b8
   147b4:	4781                	li	a5,0
   147b6:	a801                	j	0x147c6
   147b8:	fff64703          	lbu	a4,-1(a2) # 0x7fffff
   147bc:	fff60793          	addi	a5,a2,-1
   147c0:	863e                	mv	a2,a5
   147c2:	feb717e3          	bne	a4,a1,0x147b0
   147c6:	853e                	mv	a0,a5
   147c8:	8082                	ret
   147ca:	4789                	li	a5,2
   147cc:	00a7eb63          	bltu	a5,a0,0x147e2
   147d0:	8792                	mv	a5,tp
   147d2:	c581                	beqz	a1,0x147da
   147d4:	f447a703          	lw	a4,-188(a5)
   147d8:	c198                	sw	a4,0(a1)
   147da:	f4a7a223          	sw	a0,-188(a5)
   147de:	4501                	li	a0,0
   147e0:	8082                	ret
   147e2:	4559                	li	a0,22
   147e4:	8082                	ret
   147e6:	822a                	mv	tp,a0
   147e8:	4501                	li	a0,0
   147ea:	8082                	ret
   147ec:	00065c63          	bgez	a2,0x14804
   147f0:	1141                	addi	sp,sp,-16
   147f2:	e406                	sd	ra,8(sp)
   147f4:	d02fc0ef          	jal	ra,0x10cf6
   147f8:	60a2                	ld	ra,8(sp)
   147fa:	47d9                	li	a5,22
   147fc:	c11c                	sw	a5,0(a0)
   147fe:	557d                	li	a0,-1
   14800:	0141                	addi	sp,sp,16
   14802:	8082                	ret
   14804:	c110                	sw	a2,0(a0)
   14806:	0015b593          	seqz	a1,a1
   1480a:	00052223          	sw	zero,4(a0)
   1480e:	059e                	slli	a1,a1,0x7
   14810:	c50c                	sw	a1,8(a0)
   14812:	4501                	li	a0,0
   14814:	8082                	ret
   14816:	450c                	lw	a1,8(a0)
   14818:	800008b7          	lui	a7,0x80000
   1481c:	872a                	mv	a4,a0
   1481e:	4681                	li	a3,0
   14820:	2581                	sext.w	a1,a1
   14822:	fff8c893          	not	a7,a7
   14826:	431c                	lw	a5,0(a4)
   14828:	4348                	lw	a0,4(a4)
   1482a:	2781                	sext.w	a5,a5
   1482c:	2501                	sext.w	a0,a0
   1482e:	01179d63          	bne	a5,a7,0x14848
   14832:	1141                	addi	sp,sp,-16
   14834:	e406                	sd	ra,8(sp)
   14836:	cc0fc0ef          	jal	ra,0x10cf6
   1483a:	60a2                	ld	ra,8(sp)
   1483c:	04b00793          	li	a5,75
   14840:	c11c                	sw	a5,0(a0)
   14842:	557d                	li	a0,-1
   14844:	0141                	addi	sp,sp,16
   14846:	8082                	ret
   14848:	01f7d81b          	srliw	a6,a5,0x1f
   1484c:	0017861b          	addiw	a2,a5,1
   14850:	0106063b          	addw	a2,a2,a6
   14854:	1007282f          	lr.w	a6,(a4)
   14858:	00f81563          	bne	a6,a5,0x14862
   1485c:	18c726af          	sc.w	a3,a2,(a4)
   14860:	faf5                	bnez	a3,0x14854
   14862:	0008061b          	sext.w	a2,a6
   14866:	2681                	sext.w	a3,a3
   14868:	fac79fe3          	bne	a5,a2,0x14826
   1486c:	0007c563          	bltz	a5,0x14876
   14870:	e119                	bnez	a0,0x14876
   14872:	4501                	li	a0,0
   14874:	8082                	ret
   14876:	c199                	beqz	a1,0x1487c
   14878:	08000593          	li	a1,128
   1487c:	06200893          	li	a7,98
   14880:	853a                	mv	a0,a4
   14882:	0015e593          	ori	a1,a1,1
   14886:	4605                	li	a2,1
   14888:	00000073          	ecall
   1488c:	fda00793          	li	a5,-38
   14890:	fef511e3          	bne	a0,a5,0x14872
   14894:	853a                	mv	a0,a4
   14896:	4585                	li	a1,1
   14898:	00000073          	ecall
   1489c:	bfd9                	j	0x14872
   1489e:	4581                	li	a1,0
   148a0:	4d80006f          	j	0x14d78
   148a4:	7135                	addi	sp,sp,-160
   148a6:	87aa                	mv	a5,a0
   148a8:	000a1637          	lui	a2,0xa1
   148ac:	e526                	sd	s1,136(sp)
   148ae:	ed06                	sd	ra,152(sp)
   148b0:	84ae                	mv	s1,a1
   148b2:	e922                	sd	s0,144(sp)
   148b4:	03800893          	li	a7,56
   148b8:	f9c00513          	li	a0,-100
   148bc:	85be                	mv	a1,a5
   148be:	80060613          	addi	a2,a2,-2048 # 0xa0800
   148c2:	00000073          	ecall
   148c6:	0005041b          	sext.w	s0,a0
   148ca:	00045963          	bgez	s0,0x148dc
   148ce:	4781                	li	a5,0
   148d0:	60ea                	ld	ra,152(sp)
   148d2:	644a                	ld	s0,144(sp)
   148d4:	64aa                	ld	s1,136(sp)
   148d6:	853e                	mv	a0,a5
   148d8:	610d                	addi	sp,sp,160
   148da:	8082                	ret
   148dc:	05000893          	li	a7,80
   148e0:	8522                	mv	a0,s0
   148e2:	858a                	mv	a1,sp
   148e4:	00000073          	ecall
   148e8:	57fd                	li	a5,-1
   148ea:	e919                	bnez	a0,0x14900
   148ec:	75c2                	ld	a1,48(sp)
   148ee:	4781                	li	a5,0
   148f0:	8722                	mv	a4,s0
   148f2:	4685                	li	a3,1
   148f4:	4605                	li	a2,1
   148f6:	9e4fd0ef          	jal	ra,0x11ada
   148fa:	7742                	ld	a4,48(sp)
   148fc:	87aa                	mv	a5,a0
   148fe:	e098                	sd	a4,0(s1)
   14900:	03900893          	li	a7,57
   14904:	8522                	mv	a0,s0
   14906:	00000073          	ecall
   1490a:	577d                	li	a4,-1
   1490c:	fce792e3          	bne	a5,a4,0x148d0
   14910:	bf7d                	j	0x148ce
   14912:	03e00893          	li	a7,62
   14916:	00000073          	ecall
   1491a:	ce2fc06f          	j	0x10dfc
   1491e:	7179                	addi	sp,sp,-48
   14920:	03d00593          	li	a1,61
   14924:	f022                	sd	s0,32(sp)
   14926:	e84a                	sd	s2,16(sp)
   14928:	f406                	sd	ra,40(sp)
   1492a:	892a                	mv	s2,a0
   1492c:	ec26                	sd	s1,24(sp)
   1492e:	e44e                	sd	s3,8(sp)
   14930:	cd7fe0ef          	jal	ra,0x13606
   14934:	41250433          	sub	s0,a0,s2
   14938:	e809                	bnez	s0,0x1494a
   1493a:	4501                	li	a0,0
   1493c:	70a2                	ld	ra,40(sp)
   1493e:	7402                	ld	s0,32(sp)
   14940:	64e2                	ld	s1,24(sp)
   14942:	6942                	ld	s2,16(sp)
   14944:	69a2                	ld	s3,8(sp)
   14946:	6145                	addi	sp,sp,48
   14948:	8082                	ret
   1494a:	00054783          	lbu	a5,0(a0)
   1494e:	f7f5                	bnez	a5,0x1493a
   14950:	9001b483          	ld	s1,-1792(gp)
   14954:	03d00993          	li	s3,61
   14958:	d0ed                	beqz	s1,0x1493a
   1495a:	608c                	ld	a1,0(s1)
   1495c:	ddf9                	beqz	a1,0x1493a
   1495e:	8622                	mv	a2,s0
   14960:	854a                	mv	a0,s2
   14962:	3d6000ef          	jal	ra,0x14d38
   14966:	e919                	bnez	a0,0x1497c
   14968:	6088                	ld	a0,0(s1)
   1496a:	008507b3          	add	a5,a0,s0
   1496e:	0007c783          	lbu	a5,0(a5)
   14972:	01379563          	bne	a5,s3,0x1497c
   14976:	0405                	addi	s0,s0,1
   14978:	9522                	add	a0,a0,s0
   1497a:	b7c9                	j	0x1493c
   1497c:	04a1                	addi	s1,s1,8
   1497e:	bff1                	j	0x1495a
   14980:	0185171b          	slliw	a4,a0,0x18
   14984:	0185579b          	srliw	a5,a0,0x18
   14988:	66c1                	lui	a3,0x10
   1498a:	8fd9                	or	a5,a5,a4
   1498c:	f0068693          	addi	a3,a3,-256 # 0xff00
   14990:	0085571b          	srliw	a4,a0,0x8
   14994:	8f75                	and	a4,a4,a3
   14996:	8fd9                	or	a5,a5,a4
   14998:	0085151b          	slliw	a0,a0,0x8
   1499c:	00ff0737          	lui	a4,0xff0
   149a0:	8d79                	and	a0,a0,a4
   149a2:	8d5d                	or	a0,a0,a5
   149a4:	2501                	sext.w	a0,a0
   149a6:	8082                	ret
   149a8:	7119                	addi	sp,sp,-128
   149aa:	f4a6                	sd	s1,104(sp)
   149ac:	4104                	lw	s1,0(a0)
   149ae:	6afbf7b7          	lui	a5,0x6afbf
   149b2:	d227879b          	addiw	a5,a5,-734
   149b6:	f8a2                	sd	s0,112(sp)
   149b8:	f0ca                	sd	s2,96(sp)
   149ba:	ecce                	sd	s3,88(sp)
   149bc:	f466                	sd	s9,40(sp)
   149be:	fc86                	sd	ra,120(sp)
   149c0:	e8d2                	sd	s4,80(sp)
   149c2:	e4d6                	sd	s5,72(sp)
   149c4:	e0da                	sd	s6,64(sp)
   149c6:	fc5e                	sd	s7,56(sp)
   149c8:	f862                	sd	s8,48(sp)
   149ca:	f06a                	sd	s10,32(sp)
   149cc:	ec6e                	sd	s11,24(sp)
   149ce:	9cbd                	addw	s1,s1,a5
   149d0:	842a                	mv	s0,a0
   149d2:	89ae                	mv	s3,a1
   149d4:	8cb2                	mv	s9,a2
   149d6:	00852903          	lw	s2,8(a0)
   149da:	c491                	beqz	s1,0x149e6
   149dc:	854a                	mv	a0,s2
   149de:	fa3ff0ef          	jal	ra,0x14980
   149e2:	0005091b          	sext.w	s2,a0
   149e6:	00c42a03          	lw	s4,12(s0)
   149ea:	c491                	beqz	s1,0x149f6
   149ec:	8552                	mv	a0,s4
   149ee:	f93ff0ef          	jal	ra,0x14980
   149f2:	00050a1b          	sext.w	s4,a0
   149f6:	01042c03          	lw	s8,16(s0)
   149fa:	c491                	beqz	s1,0x14a06
   149fc:	8562                	mv	a0,s8
   149fe:	f83ff0ef          	jal	ra,0x14980
   14a02:	00050c1b          	sext.w	s8,a0
   14a06:	02091713          	slli	a4,s2,0x20
   14a0a:	9301                	srli	a4,a4,0x20
   14a0c:	0029d693          	srli	a3,s3,0x2
   14a10:	10d77663          	bgeu	a4,a3,0x14b1c
   14a14:	0029171b          	slliw	a4,s2,0x2
   14a18:	1702                	slli	a4,a4,0x20
   14a1a:	9301                	srli	a4,a4,0x20
   14a1c:	020a1693          	slli	a3,s4,0x20
   14a20:	40e98733          	sub	a4,s3,a4
   14a24:	9281                	srli	a3,a3,0x20
   14a26:	0ee6fb63          	bgeu	a3,a4,0x14b1c
   14a2a:	020c1693          	slli	a3,s8,0x20
   14a2e:	9281                	srli	a3,a3,0x20
   14a30:	0ee6f663          	bgeu	a3,a4,0x14b1c
   14a34:	014c6ab3          	or	s5,s8,s4
   14a38:	003afa93          	andi	s5,s5,3
   14a3c:	0e0a9063          	bnez	s5,0x14b1c
   14a40:	002a5a1b          	srliw	s4,s4,0x2
   14a44:	4d05                	li	s10,1
   14a46:	00195b9b          	srliw	s7,s2,0x1
   14a4a:	015b87bb          	addw	a5,s7,s5
   14a4e:	00179d9b          	slliw	s11,a5,0x1
   14a52:	014d873b          	addw	a4,s11,s4
   14a56:	02071693          	slli	a3,a4,0x20
   14a5a:	82f9                	srli	a3,a3,0x1e
   14a5c:	96a2                	add	a3,a3,s0
   14a5e:	e03e                	sd	a5,0(sp)
   14a60:	8b5e                	mv	s6,s7
   14a62:	4294                	lw	a3,0(a3)
   14a64:	c881                	beqz	s1,0x14a74
   14a66:	8536                	mv	a0,a3
   14a68:	e43a                	sd	a4,8(sp)
   14a6a:	f17ff0ef          	jal	ra,0x14980
   14a6e:	6722                	ld	a4,8(sp)
   14a70:	0005069b          	sext.w	a3,a0
   14a74:	2705                	addiw	a4,a4,1
   14a76:	1702                	slli	a4,a4,0x20
   14a78:	8379                	srli	a4,a4,0x1e
   14a7a:	9722                	add	a4,a4,s0
   14a7c:	4308                	lw	a0,0(a4)
   14a7e:	c491                	beqz	s1,0x14a8a
   14a80:	e436                	sd	a3,8(sp)
   14a82:	effff0ef          	jal	ra,0x14980
   14a86:	66a2                	ld	a3,8(sp)
   14a88:	2501                	sext.w	a0,a0
   14a8a:	02051593          	slli	a1,a0,0x20
   14a8e:	9181                	srli	a1,a1,0x20
   14a90:	0935f663          	bgeu	a1,s3,0x14b1c
   14a94:	02069713          	slli	a4,a3,0x20
   14a98:	9301                	srli	a4,a4,0x20
   14a9a:	40b98633          	sub	a2,s3,a1
   14a9e:	06c77f63          	bgeu	a4,a2,0x14b1c
   14aa2:	9d35                	addw	a0,a0,a3
   14aa4:	1502                	slli	a0,a0,0x20
   14aa6:	9101                	srli	a0,a0,0x20
   14aa8:	9522                	add	a0,a0,s0
   14aaa:	00054703          	lbu	a4,0(a0)
   14aae:	e73d                	bnez	a4,0x14b1c
   14ab0:	95a2                	add	a1,a1,s0
   14ab2:	8566                	mv	a0,s9
   14ab4:	bd3fe0ef          	jal	ra,0x13686
   14ab8:	e151                	bnez	a0,0x14b3c
   14aba:	002c579b          	srliw	a5,s8,0x2
   14abe:	01b78dbb          	addw	s11,a5,s11
   14ac2:	020d9793          	slli	a5,s11,0x20
   14ac6:	83f9                	srli	a5,a5,0x1e
   14ac8:	97a2                	add	a5,a5,s0
   14aca:	0007a903          	lw	s2,0(a5) # 0x6afbf000
   14ace:	c491                	beqz	s1,0x14ada
   14ad0:	854a                	mv	a0,s2
   14ad2:	eafff0ef          	jal	ra,0x14980
   14ad6:	0005091b          	sext.w	s2,a0
   14ada:	2d85                	addiw	s11,s11,1
   14adc:	1d82                	slli	s11,s11,0x20
   14ade:	01eddd93          	srli	s11,s11,0x1e
   14ae2:	9da2                	add	s11,s11,s0
   14ae4:	000da503          	lw	a0,0(s11)
   14ae8:	c481                	beqz	s1,0x14af0
   14aea:	e97ff0ef          	jal	ra,0x14980
   14aee:	2501                	sext.w	a0,a0
   14af0:	02051713          	slli	a4,a0,0x20
   14af4:	9301                	srli	a4,a4,0x20
   14af6:	03377363          	bgeu	a4,s3,0x14b1c
   14afa:	02091793          	slli	a5,s2,0x20
   14afe:	9381                	srli	a5,a5,0x20
   14b00:	40e989b3          	sub	s3,s3,a4
   14b04:	0137fc63          	bgeu	a5,s3,0x14b1c
   14b08:	012507bb          	addw	a5,a0,s2
   14b0c:	1782                	slli	a5,a5,0x20
   14b0e:	9381                	srli	a5,a5,0x20
   14b10:	97a2                	add	a5,a5,s0
   14b12:	0007c783          	lbu	a5,0(a5)
   14b16:	00e40533          	add	a0,s0,a4
   14b1a:	c391                	beqz	a5,0x14b1e
   14b1c:	4501                	li	a0,0
   14b1e:	70e6                	ld	ra,120(sp)
   14b20:	7446                	ld	s0,112(sp)
   14b22:	74a6                	ld	s1,104(sp)
   14b24:	7906                	ld	s2,96(sp)
   14b26:	69e6                	ld	s3,88(sp)
   14b28:	6a46                	ld	s4,80(sp)
   14b2a:	6aa6                	ld	s5,72(sp)
   14b2c:	6b06                	ld	s6,64(sp)
   14b2e:	7be2                	ld	s7,56(sp)
   14b30:	7c42                	ld	s8,48(sp)
   14b32:	7ca2                	ld	s9,40(sp)
   14b34:	7d02                	ld	s10,32(sp)
   14b36:	6de2                	ld	s11,24(sp)
   14b38:	6109                	addi	sp,sp,128
   14b3a:	8082                	ret
   14b3c:	ffa900e3          	beq	s2,s10,0x14b1c
   14b40:	00054563          	bltz	a0,0x14b4a
   14b44:	6a82                	ld	s5,0(sp)
   14b46:	41690bbb          	subw	s7,s2,s6
   14b4a:	895e                	mv	s2,s7
   14b4c:	bded                	j	0x14a46
   14b4e:	c909                	beqz	a0,0x14b60
   14b50:	0005871b          	sext.w	a4,a1
   14b54:	07f00693          	li	a3,127
   14b58:	00e6ec63          	bltu	a3,a4,0x14b70
   14b5c:	00b50023          	sb	a1,0(a0)
   14b60:	4505                	li	a0,1
   14b62:	8082                	ret
   14b64:	00b50023          	sb	a1,0(a0)
   14b68:	4505                	li	a0,1
   14b6a:	60a2                	ld	ra,8(sp)
   14b6c:	0141                	addi	sp,sp,16
   14b6e:	8082                	ret
   14b70:	1141                	addi	sp,sp,-16
   14b72:	e406                	sd	ra,8(sp)
   14b74:	87ae                	mv	a5,a1
   14b76:	862a                	mv	a2,a0
   14b78:	8812                	mv	a6,tp
   14b7a:	fc083803          	ld	a6,-64(a6)
   14b7e:	00083803          	ld	a6,0(a6)
   14b82:	00081f63          	bnez	a6,0x14ba0
   14b86:	77c9                	lui	a5,0xffff2
   14b88:	0807879b          	addiw	a5,a5,128
   14b8c:	9f3d                	addw	a4,a4,a5
   14b8e:	fce6fbe3          	bgeu	a3,a4,0x14b64
   14b92:	964fc0ef          	jal	ra,0x10cf6
   14b96:	05400793          	li	a5,84
   14b9a:	c11c                	sw	a5,0(a0)
   14b9c:	557d                	li	a0,-1
   14b9e:	b7f1                	j	0x14b6a
   14ba0:	7ff00693          	li	a3,2047
   14ba4:	02e6e063          	bltu	a3,a4,0x14bc4
   14ba8:	4065d71b          	sraiw	a4,a1,0x6
   14bac:	03f5f793          	andi	a5,a1,63
   14bb0:	fc076713          	ori	a4,a4,-64
   14bb4:	f807e793          	ori	a5,a5,-128
   14bb8:	00e50023          	sb	a4,0(a0)
   14bbc:	00f500a3          	sb	a5,1(a0)
   14bc0:	4509                	li	a0,2
   14bc2:	b765                	j	0x14b6a
   14bc4:	66b5                	lui	a3,0xd
   14bc6:	7ff68693          	addi	a3,a3,2047 # 0xd7ff
   14bca:	00e6f763          	bgeu	a3,a4,0x14bd8
   14bce:	76c9                	lui	a3,0xffff2
   14bd0:	9eb9                	addw	a3,a3,a4
   14bd2:	6589                	lui	a1,0x2
   14bd4:	02b6f863          	bgeu	a3,a1,0x14c04
   14bd8:	40c7d71b          	sraiw	a4,a5,0xc
   14bdc:	fe076713          	ori	a4,a4,-32
   14be0:	00e60023          	sb	a4,0(a2)
   14be4:	4067d71b          	sraiw	a4,a5,0x6
   14be8:	03f77713          	andi	a4,a4,63
   14bec:	03f7f793          	andi	a5,a5,63
   14bf0:	f8076713          	ori	a4,a4,-128
   14bf4:	f807e793          	ori	a5,a5,-128
   14bf8:	00e600a3          	sb	a4,1(a2)
   14bfc:	00f60123          	sb	a5,2(a2)
   14c00:	450d                	li	a0,3
   14c02:	b7a5                	j	0x14b6a
   14c04:	76c1                	lui	a3,0xffff0
   14c06:	9f35                	addw	a4,a4,a3
   14c08:	001006b7          	lui	a3,0x100
   14c0c:	f8d773e3          	bgeu	a4,a3,0x14b92
   14c10:	4127d71b          	sraiw	a4,a5,0x12
   14c14:	ff076713          	ori	a4,a4,-16
   14c18:	00e50023          	sb	a4,0(a0)
   14c1c:	40c7d71b          	sraiw	a4,a5,0xc
   14c20:	03f77713          	andi	a4,a4,63
   14c24:	f8076713          	ori	a4,a4,-128
   14c28:	00e500a3          	sb	a4,1(a0)
   14c2c:	4067d71b          	sraiw	a4,a5,0x6
   14c30:	03f77713          	andi	a4,a4,63
   14c34:	03f7f793          	andi	a5,a5,63
   14c38:	f8076713          	ori	a4,a4,-128
   14c3c:	f807e793          	ori	a5,a5,-128
   14c40:	00e50123          	sb	a4,2(a0)
   14c44:	00f501a3          	sb	a5,3(a0)
   14c48:	4511                	li	a0,4
   14c4a:	b705                	j	0x14b6a
   14c4c:	08b00893          	li	a7,139
   14c50:	00000073          	ecall
   14c54:	715d                	addi	sp,sp,-80
   14c56:	7d1c                	ld	a5,56(a0)
   14c58:	f84a                	sd	s2,48(sp)
   14c5a:	02853903          	ld	s2,40(a0)
   14c5e:	e0a2                	sd	s0,64(sp)
   14c60:	fc26                	sd	s1,56(sp)
   14c62:	40f90933          	sub	s2,s2,a5
   14c66:	f44e                	sd	s3,40(sp)
   14c68:	f052                	sd	s4,32(sp)
   14c6a:	e44a                	sd	s2,8(sp)
   14c6c:	e486                	sd	ra,72(sp)
   14c6e:	842a                	mv	s0,a0
   14c70:	89b2                	mv	s3,a2
   14c72:	e03e                	sd	a5,0(sp)
   14c74:	e82e                	sd	a1,16(sp)
   14c76:	ec32                	sd	a2,24(sp)
   14c78:	9932                	add	s2,s2,a2
   14c7a:	4a09                	li	s4,2
   14c7c:	848a                	mv	s1,sp
   14c7e:	04200893          	li	a7,66
   14c82:	5c28                	lw	a0,120(s0)
   14c84:	85a6                	mv	a1,s1
   14c86:	8652                	mv	a2,s4
   14c88:	00000073          	ecall
   14c8c:	970fc0ef          	jal	ra,0x10dfc
   14c90:	02a91163          	bne	s2,a0,0x14cb2
   14c94:	6c3c                	ld	a5,88(s0)
   14c96:	7038                	ld	a4,96(s0)
   14c98:	fc1c                	sd	a5,56(s0)
   14c9a:	973e                	add	a4,a4,a5
   14c9c:	f018                	sd	a4,32(s0)
   14c9e:	f41c                	sd	a5,40(s0)
   14ca0:	60a6                	ld	ra,72(sp)
   14ca2:	6406                	ld	s0,64(sp)
   14ca4:	854e                	mv	a0,s3
   14ca6:	74e2                	ld	s1,56(sp)
   14ca8:	7942                	ld	s2,48(sp)
   14caa:	79a2                	ld	s3,40(sp)
   14cac:	7a02                	ld	s4,32(sp)
   14cae:	6161                	addi	sp,sp,80
   14cb0:	8082                	ret
   14cb2:	02055363          	bgez	a0,0x14cd8
   14cb6:	401c                	lw	a5,0(s0)
   14cb8:	02043023          	sd	zero,32(s0)
   14cbc:	02043c23          	sd	zero,56(s0)
   14cc0:	0207e793          	ori	a5,a5,32
   14cc4:	c01c                	sw	a5,0(s0)
   14cc6:	02043423          	sd	zero,40(s0)
   14cca:	4789                	li	a5,2
   14ccc:	02fa0663          	beq	s4,a5,0x14cf8
   14cd0:	649c                	ld	a5,8(s1)
   14cd2:	40f989b3          	sub	s3,s3,a5
   14cd6:	b7e9                	j	0x14ca0
   14cd8:	649c                	ld	a5,8(s1)
   14cda:	40a90933          	sub	s2,s2,a0
   14cde:	00a7f563          	bgeu	a5,a0,0x14ce8
   14ce2:	8d1d                	sub	a0,a0,a5
   14ce4:	04c1                	addi	s1,s1,16
   14ce6:	3a7d                	addiw	s4,s4,-1
   14ce8:	609c                	ld	a5,0(s1)
   14cea:	97aa                	add	a5,a5,a0
   14cec:	e09c                	sd	a5,0(s1)
   14cee:	649c                	ld	a5,8(s1)
   14cf0:	40a78533          	sub	a0,a5,a0
   14cf4:	e488                	sd	a0,8(s1)
   14cf6:	b761                	j	0x14c7e
   14cf8:	4981                	li	s3,0
   14cfa:	b75d                	j	0x14ca0
   14cfc:	08a50783          	lb	a5,138(a0)
   14d00:	fff7871b          	addiw	a4,a5,-1
   14d04:	8fd9                	or	a5,a5,a4
   14d06:	08f50523          	sb	a5,138(a0)
   14d0a:	411c                	lw	a5,0(a0)
   14d0c:	0087f713          	andi	a4,a5,8
   14d10:	c711                	beqz	a4,0x14d1c
   14d12:	0207e793          	ori	a5,a5,32
   14d16:	c11c                	sw	a5,0(a0)
   14d18:	557d                	li	a0,-1
   14d1a:	8082                	ret
   14d1c:	6d3c                	ld	a5,88(a0)
   14d1e:	7138                	ld	a4,96(a0)
   14d20:	00053823          	sd	zero,16(a0)
   14d24:	fd1c                	sd	a5,56(a0)
   14d26:	f51c                	sd	a5,40(a0)
   14d28:	97ba                	add	a5,a5,a4
   14d2a:	00053423          	sd	zero,8(a0)
   14d2e:	f11c                	sd	a5,32(a0)
   14d30:	4501                	li	a0,0
   14d32:	8082                	ret
   14d34:	1b20006f          	j	0x14ee6
   14d38:	c60d                	beqz	a2,0x14d62
   14d3a:	167d                	addi	a2,a2,-1
   14d3c:	4701                	li	a4,0
   14d3e:	00e507b3          	add	a5,a0,a4
   14d42:	0007c783          	lbu	a5,0(a5) # 0xffffffffffff2000
   14d46:	00e586b3          	add	a3,a1,a4
   14d4a:	0006c683          	lbu	a3,0(a3) # 0x100000
   14d4e:	c799                	beqz	a5,0x14d5c
   14d50:	c691                	beqz	a3,0x14d5c
   14d52:	00e60563          	beq	a2,a4,0x14d5c
   14d56:	0705                	addi	a4,a4,1
   14d58:	fed783e3          	beq	a5,a3,0x14d3e
   14d5c:	40d7853b          	subw	a0,a5,a3
   14d60:	8082                	ret
   14d62:	4501                	li	a0,0
   14d64:	8082                	ret
   14d66:	100527af          	lr.w	a5,(a0)
   14d6a:	37fd                	addiw	a5,a5,-1
   14d6c:	18f5272f          	sc.w	a4,a5,(a0)
   14d70:	0007079b          	sext.w	a5,a4
   14d74:	fbed                	bnez	a5,0x14d66
   14d76:	8082                	ret
   14d78:	7159                	addi	sp,sp,-112
   14d7a:	f0a2                	sd	s0,96(sp)
   14d7c:	fc56                	sd	s5,56(sp)
   14d7e:	f486                	sd	ra,104(sp)
   14d80:	eca6                	sd	s1,88(sp)
   14d82:	e8ca                	sd	s2,80(sp)
   14d84:	e4ce                	sd	s3,72(sp)
   14d86:	e0d2                	sd	s4,64(sp)
   14d88:	f85a                	sd	s6,48(sp)
   14d8a:	f45e                	sd	s7,40(sp)
   14d8c:	842a                	mv	s0,a0
   14d8e:	8aae                	mv	s5,a1
   14d90:	2dc000ef          	jal	ra,0x1506c
   14d94:	8522                	mv	a0,s0
   14d96:	0ae000ef          	jal	ra,0x14e44
   14d9a:	e14d                	bnez	a0,0x14e3c
   14d9c:	4501                	li	a0,0
   14d9e:	70a6                	ld	ra,104(sp)
   14da0:	7406                	ld	s0,96(sp)
   14da2:	64e6                	ld	s1,88(sp)
   14da4:	6946                	ld	s2,80(sp)
   14da6:	69a6                	ld	s3,72(sp)
   14da8:	6a06                	ld	s4,64(sp)
   14daa:	7ae2                	ld	s5,56(sp)
   14dac:	7b42                	ld	s6,48(sp)
   14dae:	7ba2                	ld	s7,40(sp)
   14db0:	6165                	addi	sp,sp,112
   14db2:	8082                	ret
   14db4:	0330000f          	fence	rw,rw
   14db8:	377d                	addiw	a4,a4,-1
   14dba:	cb01                	beqz	a4,0x14dca
   14dbc:	401c                	lw	a5,0(s0)
   14dbe:	2781                	sext.w	a5,a5
   14dc0:	00f04563          	bgtz	a5,0x14dca
   14dc4:	405c                	lw	a5,4(s0)
   14dc6:	2781                	sext.w	a5,a5
   14dc8:	d7f5                	beqz	a5,0x14db4
   14dca:	00440493          	addi	s1,s0,4
   14dce:	4981                	li	s3,0
   14dd0:	5a7d                	li	s4,-1
   14dd2:	00015b37          	lui	s6,0x15
   14dd6:	8522                	mv	a0,s0
   14dd8:	06c000ef          	jal	ra,0x14e44
   14ddc:	d161                	beqz	a0,0x14d9c
   14dde:	1004a7af          	lr.w	a5,(s1)
   14de2:	2785                	addiw	a5,a5,1
   14de4:	18f4a72f          	sc.w	a4,a5,(s1)
   14de8:	0007079b          	sext.w	a5,a4
   14dec:	fbed                	bnez	a5,0x14dde
   14dee:	8626                	mv	a2,s1
   14df0:	d66b0593          	addi	a1,s6,-666 # 0x14d66
   14df4:	0028                	addi	a0,sp,8
   14df6:	87ca                	mv	a5,s2
   14df8:	1004272f          	lr.w	a4,(s0)
   14dfc:	01371563          	bne	a4,s3,0x14e06
   14e00:	194427af          	sc.w	a5,s4,(s0)
   14e04:	fbf5                	bnez	a5,0x14df8
   14e06:	0007891b          	sext.w	s2,a5
   14e0a:	230000ef          	jal	ra,0x1503a
   14e0e:	4418                	lw	a4,8(s0)
   14e10:	86d6                	mv	a3,s5
   14e12:	4601                	li	a2,0
   14e14:	2701                	sext.w	a4,a4
   14e16:	55fd                	li	a1,-1
   14e18:	8522                	mv	a0,s0
   14e1a:	118000ef          	jal	ra,0x14f32
   14e1e:	8baa                	mv	s7,a0
   14e20:	4585                	li	a1,1
   14e22:	0028                	addi	a0,sp,8
   14e24:	21e000ef          	jal	ra,0x15042
   14e28:	ffbbf793          	andi	a5,s7,-5
   14e2c:	2781                	sext.w	a5,a5
   14e2e:	d7c5                	beqz	a5,0x14dd6
   14e30:	ec7fb0ef          	jal	ra,0x10cf6
   14e34:	01752023          	sw	s7,0(a0)
   14e38:	557d                	li	a0,-1
   14e3a:	b795                	j	0x14d9e
   14e3c:	4901                	li	s2,0
   14e3e:	06500713          	li	a4,101
   14e42:	bf9d                	j	0x14db8
   14e44:	4701                	li	a4,0
   14e46:	4585                	li	a1,1
   14e48:	411c                	lw	a5,0(a0)
   14e4a:	2781                	sext.w	a5,a5
   14e4c:	00f04c63          	bgtz	a5,0x14e64
   14e50:	1141                	addi	sp,sp,-16
   14e52:	e406                	sd	ra,8(sp)
   14e54:	ea3fb0ef          	jal	ra,0x10cf6
   14e58:	60a2                	ld	ra,8(sp)
   14e5a:	47ad                	li	a5,11
   14e5c:	c11c                	sw	a5,0(a0)
   14e5e:	557d                	li	a0,-1
   14e60:	0141                	addi	sp,sp,16
   14e62:	8082                	ret
   14e64:	fff7861b          	addiw	a2,a5,-1
   14e68:	4681                	li	a3,0
   14e6a:	00b79663          	bne	a5,a1,0x14e76
   14e6e:	4154                	lw	a3,4(a0)
   14e70:	2681                	sext.w	a3,a3
   14e72:	00d036b3          	snez	a3,a3
   14e76:	40d606bb          	subw	a3,a2,a3
   14e7a:	1005262f          	lr.w	a2,(a0)
   14e7e:	00f61563          	bne	a2,a5,0x14e88
   14e82:	18d5272f          	sc.w	a4,a3,(a0)
   14e86:	fb75                	bnez	a4,0x14e7a
   14e88:	0006069b          	sext.w	a3,a2
   14e8c:	2701                	sext.w	a4,a4
   14e8e:	fad79de3          	bne	a5,a3,0x14e48
   14e92:	4501                	li	a0,0
   14e94:	8082                	ret
   14e96:	c539                	beqz	a0,0x14ee4
   14e98:	08c52783          	lw	a5,140(a0)
   14e9c:	1141                	addi	sp,sp,-16
   14e9e:	e022                	sd	s0,0(sp)
   14ea0:	e406                	sd	ra,8(sp)
   14ea2:	02079713          	slli	a4,a5,0x20
   14ea6:	842a                	mv	s0,a0
   14ea8:	00074463          	bltz	a4,0x14eb0
   14eac:	e12ff0ef          	jal	ra,0x144be
   14eb0:	7418                	ld	a4,40(s0)
   14eb2:	7c1c                	ld	a5,56(s0)
   14eb4:	00e7f763          	bgeu	a5,a4,0x14ec2
   14eb8:	643c                	ld	a5,72(s0)
   14eba:	4601                	li	a2,0
   14ebc:	4581                	li	a1,0
   14ebe:	8522                	mv	a0,s0
   14ec0:	9782                	jalr	a5
   14ec2:	640c                	ld	a1,8(s0)
   14ec4:	681c                	ld	a5,16(s0)
   14ec6:	00f5fb63          	bgeu	a1,a5,0x14edc
   14eca:	05043303          	ld	t1,80(s0)
   14ece:	8522                	mv	a0,s0
   14ed0:	6402                	ld	s0,0(sp)
   14ed2:	60a2                	ld	ra,8(sp)
   14ed4:	4605                	li	a2,1
   14ed6:	8d9d                	sub	a1,a1,a5
   14ed8:	0141                	addi	sp,sp,16
   14eda:	8302                	jr	t1
   14edc:	60a2                	ld	ra,8(sp)
   14ede:	6402                	ld	s0,0(sp)
   14ee0:	0141                	addi	sp,sp,16
   14ee2:	8082                	ret
   14ee4:	8082                	ret
   14ee6:	1141                	addi	sp,sp,-16
   14ee8:	e022                	sd	s0,0(sp)
   14eea:	e406                	sd	ra,8(sp)
   14eec:	028000ef          	jal	ra,0x14f14
   14ef0:	6100                	ld	s0,0(a0)
   14ef2:	ec01                	bnez	s0,0x14f0a
   14ef4:	9381b503          	ld	a0,-1736(gp)
   14ef8:	f9fff0ef          	jal	ra,0x14e96
   14efc:	6402                	ld	s0,0(sp)
   14efe:	60a2                	ld	ra,8(sp)
   14f00:	8801b503          	ld	a0,-1920(gp)
   14f04:	0141                	addi	sp,sp,16
   14f06:	f91ff06f          	j	0x14e96
   14f0a:	8522                	mv	a0,s0
   14f0c:	f8bff0ef          	jal	ra,0x14e96
   14f10:	7820                	ld	s0,112(s0)
   14f12:	b7c5                	j	0x14ef2
   14f14:	1141                	addi	sp,sp,-16
   14f16:	94018513          	addi	a0,gp,-1728
   14f1a:	e406                	sd	ra,8(sp)
   14f1c:	811fe0ef          	jal	ra,0x1372c
   14f20:	60a2                	ld	ra,8(sp)
   14f22:	94818513          	addi	a0,gp,-1720
   14f26:	0141                	addi	sp,sp,16
   14f28:	8082                	ret
   14f2a:	94018513          	addi	a0,gp,-1728
   14f2e:	847fe06f          	j	0x13774
   14f32:	715d                	addi	sp,sp,-80
   14f34:	fc26                	sd	s1,56(sp)
   14f36:	f84a                	sd	s2,48(sp)
   14f38:	f44e                	sd	s3,40(sp)
   14f3a:	e486                	sd	ra,72(sp)
   14f3c:	e0a2                	sd	s0,64(sp)
   14f3e:	84aa                	mv	s1,a0
   14f40:	892e                	mv	s2,a1
   14f42:	08000993          	li	s3,128
   14f46:	e311                	bnez	a4,0x14f4a
   14f48:	89ba                	mv	s3,a4
   14f4a:	ceb1                	beqz	a3,0x14fa6
   14f4c:	6698                	ld	a4,8(a3)
   14f4e:	3b9ad437          	lui	s0,0x3b9ad
   14f52:	9ff40793          	addi	a5,s0,-1537 # 0x3b9ac9ff
   14f56:	00e7fa63          	bgeu	a5,a4,0x14f6a
   14f5a:	4559                	li	a0,22
   14f5c:	60a6                	ld	ra,72(sp)
   14f5e:	6406                	ld	s0,64(sp)
   14f60:	74e2                	ld	s1,56(sp)
   14f62:	7942                	ld	s2,48(sp)
   14f64:	79a2                	ld	s3,40(sp)
   14f66:	6161                	addi	sp,sp,80
   14f68:	8082                	ret
   14f6a:	080c                	addi	a1,sp,16
   14f6c:	8532                	mv	a0,a2
   14f6e:	e436                	sd	a3,8(sp)
   14f70:	c65fe0ef          	jal	ra,0x13bd4
   14f74:	f17d                	bnez	a0,0x14f5a
   14f76:	66a2                	ld	a3,8(sp)
   14f78:	67c2                	ld	a5,16(sp)
   14f7a:	6298                	ld	a4,0(a3)
   14f7c:	8f1d                	sub	a4,a4,a5
   14f7e:	669c                	ld	a5,8(a3)
   14f80:	66e2                	ld	a3,24(sp)
   14f82:	e83a                	sd	a4,16(sp)
   14f84:	8f95                	sub	a5,a5,a3
   14f86:	ec3e                	sd	a5,24(sp)
   14f88:	0007d863          	bgez	a5,0x14f98
   14f8c:	a0040413          	addi	s0,s0,-1536
   14f90:	177d                	addi	a4,a4,-1
   14f92:	97a2                	add	a5,a5,s0
   14f94:	e83a                	sd	a4,16(sp)
   14f96:	ec3e                	sd	a5,24(sp)
   14f98:	67c2                	ld	a5,16(sp)
   14f9a:	0800                	addi	s0,sp,16
   14f9c:	0007d663          	bgez	a5,0x14fa8
   14fa0:	06e00513          	li	a0,110
   14fa4:	bf65                	j	0x14f5c
   14fa6:	4401                	li	s0,0
   14fa8:	4781                	li	a5,0
   14faa:	4801                	li	a6,0
   14fac:	8722                	mv	a4,s0
   14fae:	86ca                	mv	a3,s2
   14fb0:	864e                	mv	a2,s3
   14fb2:	85a6                	mv	a1,s1
   14fb4:	06200513          	li	a0,98
   14fb8:	ffafe0ef          	jal	ra,0x137b2
   14fbc:	40a0053b          	negw	a0,a0
   14fc0:	02600793          	li	a5,38
   14fc4:	00f51e63          	bne	a0,a5,0x14fe0
   14fc8:	4801                	li	a6,0
   14fca:	4781                	li	a5,0
   14fcc:	8722                	mv	a4,s0
   14fce:	86ca                	mv	a3,s2
   14fd0:	4601                	li	a2,0
   14fd2:	85a6                	mv	a1,s1
   14fd4:	06200513          	li	a0,98
   14fd8:	fdafe0ef          	jal	ra,0x137b2
   14fdc:	40a0053b          	negw	a0,a0
   14fe0:	4791                	li	a5,4
   14fe2:	f6f50de3          	beq	a0,a5,0x14f5c
   14fe6:	06e00793          	li	a5,110
   14fea:	faf50be3          	beq	a0,a5,0x14fa0
   14fee:	07d00793          	li	a5,125
   14ff2:	f6f505e3          	beq	a0,a5,0x14f5c
   14ff6:	4501                	li	a0,0
   14ff8:	b795                	j	0x14f5c
   14ffa:	715d                	addi	sp,sp,-80
   14ffc:	e0a2                	sd	s0,64(sp)
   14ffe:	fc26                	sd	s1,56(sp)
   15000:	842a                	mv	s0,a0
   15002:	84ae                	mv	s1,a1
   15004:	4505                	li	a0,1
   15006:	106c                	addi	a1,sp,44
   15008:	e486                	sd	ra,72(sp)
   1500a:	ec32                	sd	a2,24(sp)
   1500c:	e836                	sd	a3,16(sp)
   1500e:	e43a                	sd	a4,8(sp)
   15010:	fbaff0ef          	jal	ra,0x147ca
   15014:	6722                	ld	a4,8(sp)
   15016:	66c2                	ld	a3,16(sp)
   15018:	6662                	ld	a2,24(sp)
   1501a:	85a6                	mv	a1,s1
   1501c:	8522                	mv	a0,s0
   1501e:	f15ff0ef          	jal	ra,0x14f32
   15022:	842a                	mv	s0,a0
   15024:	5532                	lw	a0,44(sp)
   15026:	4581                	li	a1,0
   15028:	fa2ff0ef          	jal	ra,0x147ca
   1502c:	8522                	mv	a0,s0
   1502e:	60a6                	ld	ra,72(sp)
   15030:	6406                	ld	s0,64(sp)
   15032:	74e2                	ld	s1,56(sp)
   15034:	6161                	addi	sp,sp,80
   15036:	8082                	ret
   15038:	8082                	ret
   1503a:	e10c                	sd	a1,0(a0)
   1503c:	e510                	sd	a2,8(a0)
   1503e:	ffbff06f          	j	0x15038
   15042:	1101                	addi	sp,sp,-32
   15044:	e822                	sd	s0,16(sp)
   15046:	e42e                	sd	a1,8(sp)
   15048:	ec06                	sd	ra,24(sp)
   1504a:	842a                	mv	s0,a0
   1504c:	fedff0ef          	jal	ra,0x15038
   15050:	65a2                	ld	a1,8(sp)
   15052:	c981                	beqz	a1,0x15062
   15054:	00043303          	ld	t1,0(s0)
   15058:	6408                	ld	a0,8(s0)
   1505a:	6442                	ld	s0,16(sp)
   1505c:	60e2                	ld	ra,24(sp)
   1505e:	6105                	addi	sp,sp,32
   15060:	8302                	jr	t1
   15062:	60e2                	ld	ra,24(sp)
   15064:	6442                	ld	s0,16(sp)
   15066:	6105                	addi	sp,sp,32
   15068:	8082                	ret
   1506a:	8082                	ret
   1506c:	fffff06f          	j	0x1506a
   15070:	7179                	addi	sp,sp,-48
   15072:	f406                	sd	ra,40(sp)
   15074:	f022                	sd	s0,32(sp)
   15076:	ec26                	sd	s1,24(sp)
   15078:	e84a                	sd	s2,16(sp)
   1507a:	e44e                	sd	s3,8(sp)
   1507c:	e052                	sd	s4,0(sp)
   1507e:	00202973          	frrm	s2
   15082:	6fa1                	lui	t6,0x8
   15084:	52fd                	li	t0,-1
   15086:	0305d413          	srli	s0,a1,0x30
   1508a:	ffff8313          	addi	t1,t6,-1 # 0x7fff
   1508e:	0102d393          	srli	t2,t0,0x10
   15092:	0306d893          	srli	a7,a3,0x30
   15096:	00647433          	and	s0,s0,t1
   1509a:	03f5d993          	srli	s3,a1,0x3f
   1509e:	0068f8b3          	and	a7,a7,t1
   150a2:	0075f5b3          	and	a1,a1,t2
   150a6:	03f6df13          	srli	t5,a3,0x3f
   150aa:	0076f6b3          	and	a3,a3,t2
   150ae:	03d55493          	srli	s1,a0,0x3d
   150b2:	058e                	slli	a1,a1,0x3
   150b4:	00351e93          	slli	t4,a0,0x3
   150b8:	068e                	slli	a3,a3,0x3
   150ba:	03d65513          	srli	a0,a2,0x3d
   150be:	411407bb          	subw	a5,s0,a7
   150c2:	2901                	sext.w	s2,s2
   150c4:	8dc5                	or	a1,a1,s1
   150c6:	8ec9                	or	a3,a3,a0
   150c8:	00361e13          	slli	t3,a2,0x3
   150cc:	0007871b          	sext.w	a4,a5
   150d0:	31e99a63          	bne	s3,t5,0x153e4
   150d4:	0ee05d63          	blez	a4,0x151ce
   150d8:	08089163          	bnez	a7,0x1515a
   150dc:	01c6e733          	or	a4,a3,t3
   150e0:	ef11                	bnez	a4,0x150fc
   150e2:	70641363          	bne	s0,t1,0x157e8
   150e6:	01d5ee33          	or	t3,a1,t4
   150ea:	740e0063          	beqz	t3,0x1582a
   150ee:	0325d793          	srli	a5,a1,0x32
   150f2:	86ae                	mv	a3,a1
   150f4:	8e76                	mv	t3,t4
   150f6:	e7a9                	bnez	a5,0x15140
   150f8:	47c1                	li	a5,16
   150fa:	a2fd                	j	0x152e8
   150fc:	fff7871b          	addiw	a4,a5,-1
   15100:	e331                	bnez	a4,0x15144
   15102:	9e76                	add	t3,t3,t4
   15104:	96ae                	add	a3,a3,a1
   15106:	01de3eb3          	sltu	t4,t3,t4
   1510a:	96f6                	add	a3,a3,t4
   1510c:	00c69793          	slli	a5,a3,0xc
   15110:	6c07d763          	bgez	a5,0x157de
   15114:	67a1                	lui	a5,0x8
   15116:	0405                	addi	s0,s0,1
   15118:	fff78713          	addi	a4,a5,-1 # 0x7fff
   1511c:	28e40e63          	beq	s0,a4,0x153b8
   15120:	557d                	li	a0,-1
   15122:	154e                	slli	a0,a0,0x33
   15124:	157d                	addi	a0,a0,-1
   15126:	8d75                	and	a0,a0,a3
   15128:	001e5593          	srli	a1,t3,0x1
   1512c:	001e7e13          	andi	t3,t3,1
   15130:	03f51693          	slli	a3,a0,0x3f
   15134:	01c5ee33          	or	t3,a1,t3
   15138:	01c6ee33          	or	t3,a3,t3
   1513c:	00155693          	srli	a3,a0,0x1
   15140:	4701                	li	a4,0
   15142:	a40d                	j	0x15364
   15144:	02641063          	bne	s0,t1,0x15164
   15148:	01d5ee33          	or	t3,a1,t4
   1514c:	6c0e0f63          	beqz	t3,0x1582a
   15150:	00d59793          	slli	a5,a1,0xd
   15154:	86ae                	mv	a3,a1
   15156:	8e76                	mv	t3,t4
   15158:	a849                	j	0x151ea
   1515a:	fe6407e3          	beq	s0,t1,0x15148
   1515e:	4785                	li	a5,1
   15160:	17ce                	slli	a5,a5,0x33
   15162:	8edd                	or	a3,a3,a5
   15164:	07400793          	li	a5,116
   15168:	04e7ce63          	blt	a5,a4,0x151c4
   1516c:	03f00793          	li	a5,63
   15170:	02e7c363          	blt	a5,a4,0x15196
   15174:	04000493          	li	s1,64
   15178:	9c99                	subw	s1,s1,a4
   1517a:	009697b3          	sll	a5,a3,s1
   1517e:	00ee5633          	srl	a2,t3,a4
   15182:	009e1e33          	sll	t3,t3,s1
   15186:	8fd1                	or	a5,a5,a2
   15188:	01c03e33          	snez	t3,t3
   1518c:	01c7ee33          	or	t3,a5,t3
   15190:	00e6d6b3          	srl	a3,a3,a4
   15194:	b7bd                	j	0x15102
   15196:	fc07079b          	addiw	a5,a4,-64
   1519a:	04000613          	li	a2,64
   1519e:	00f6d7b3          	srl	a5,a3,a5
   151a2:	4481                	li	s1,0
   151a4:	00c70863          	beq	a4,a2,0x151b4
   151a8:	08000493          	li	s1,128
   151ac:	40e4873b          	subw	a4,s1,a4
   151b0:	00e694b3          	sll	s1,a3,a4
   151b4:	01c4ee33          	or	t3,s1,t3
   151b8:	01c03e33          	snez	t3,t3
   151bc:	01c7ee33          	or	t3,a5,t3
   151c0:	4681                	li	a3,0
   151c2:	b781                	j	0x15102
   151c4:	01c6ee33          	or	t3,a3,t3
   151c8:	01c03e33          	snez	t3,t3
   151cc:	bfd5                	j	0x151c0
   151ce:	cf69                	beqz	a4,0x152a8
   151d0:	e041                	bnez	s0,0x15250
   151d2:	01d5e633          	or	a2,a1,t4
   151d6:	ee11                	bnez	a2,0x151f2
   151d8:	8446                	mv	s0,a7
   151da:	60689263          	bne	a7,t1,0x157de
   151de:	01c6e7b3          	or	a5,a3,t3
   151e2:	62078c63          	beqz	a5,0x1581a
   151e6:	00d69793          	slli	a5,a3,0xd
   151ea:	4701                	li	a4,0
   151ec:	1607cc63          	bltz	a5,0x15364
   151f0:	b721                	j	0x150f8
   151f2:	00571a63          	bne	a4,t0,0x15206
   151f6:	9ef2                	add	t4,t4,t3
   151f8:	96ae                	add	a3,a3,a1
   151fa:	01cebe33          	sltu	t3,t4,t3
   151fe:	96f2                	add	a3,a3,t3
   15200:	8e76                	mv	t3,t4
   15202:	8446                	mv	s0,a7
   15204:	b721                	j	0x1510c
   15206:	04688763          	beq	a7,t1,0x15254
   1520a:	fff7c793          	not	a5,a5
   1520e:	0007881b          	sext.w	a6,a5
   15212:	07400793          	li	a5,116
   15216:	0907c463          	blt	a5,a6,0x1529e
   1521a:	03f00793          	li	a5,63
   1521e:	0507c963          	blt	a5,a6,0x15270
   15222:	04000513          	li	a0,64
   15226:	4105053b          	subw	a0,a0,a6
   1522a:	010ed7b3          	srl	a5,t4,a6
   1522e:	00a594b3          	sll	s1,a1,a0
   15232:	00ae9eb3          	sll	t4,t4,a0
   15236:	8cdd                	or	s1,s1,a5
   15238:	01d03eb3          	snez	t4,t4
   1523c:	01d4eeb3          	or	t4,s1,t4
   15240:	0105d833          	srl	a6,a1,a6
   15244:	9ef2                	add	t4,t4,t3
   15246:	9836                	add	a6,a6,a3
   15248:	01ceb6b3          	sltu	a3,t4,t3
   1524c:	96c2                	add	a3,a3,a6
   1524e:	bf4d                	j	0x15200
   15250:	00689a63          	bne	a7,t1,0x15264
   15254:	01c6e7b3          	or	a5,a3,t3
   15258:	5c078563          	beqz	a5,0x15822
   1525c:	00d69793          	slli	a5,a3,0xd
   15260:	8446                	mv	s0,a7
   15262:	b761                	j	0x151ea
   15264:	40f0083b          	negw	a6,a5
   15268:	4785                	li	a5,1
   1526a:	17ce                	slli	a5,a5,0x33
   1526c:	8ddd                	or	a1,a1,a5
   1526e:	b755                	j	0x15212
   15270:	fc08049b          	addiw	s1,a6,-64
   15274:	04000793          	li	a5,64
   15278:	0095d4b3          	srl	s1,a1,s1
   1527c:	4501                	li	a0,0
   1527e:	00f80863          	beq	a6,a5,0x1528e
   15282:	08000513          	li	a0,128
   15286:	4105083b          	subw	a6,a0,a6
   1528a:	01059533          	sll	a0,a1,a6
   1528e:	01d56eb3          	or	t4,a0,t4
   15292:	01d03eb3          	snez	t4,t4
   15296:	01d4eeb3          	or	t4,s1,t4
   1529a:	4801                	li	a6,0
   1529c:	b765                	j	0x15244
   1529e:	01d5e4b3          	or	s1,a1,t4
   152a2:	00903eb3          	snez	t4,s1
   152a6:	bfd5                	j	0x1529a
   152a8:	00140f13          	addi	t5,s0,1
   152ac:	ffef8793          	addi	a5,t6,-2
   152b0:	00ff7633          	and	a2,t5,a5
   152b4:	e651                	bnez	a2,0x15340
   152b6:	01d5e633          	or	a2,a1,t4
   152ba:	ec1d                	bnez	s0,0x152f8
   152bc:	52060363          	beqz	a2,0x157e2
   152c0:	01c6e7b3          	or	a5,a3,t3
   152c4:	2e078263          	beqz	a5,0x155a8
   152c8:	9e76                	add	t3,t3,t4
   152ca:	96ae                	add	a3,a3,a1
   152cc:	01de34b3          	sltu	s1,t3,t4
   152d0:	009685b3          	add	a1,a3,s1
   152d4:	00c59793          	slli	a5,a1,0xc
   152d8:	5007d663          	bgez	a5,0x157e4
   152dc:	03329693          	slli	a3,t0,0x33
   152e0:	16fd                	addi	a3,a3,-1
   152e2:	8eed                	and	a3,a3,a1
   152e4:	4781                	li	a5,0
   152e6:	4405                	li	s0,1
   152e8:	007e7613          	andi	a2,t3,7
   152ec:	e245                	bnez	a2,0x1538c
   152ee:	38070f63          	beqz	a4,0x1568c
   152f2:	0017f713          	andi	a4,a5,1
   152f6:	ab99                	j	0x1584c
   152f8:	02641f63          	bne	s0,t1,0x15336
   152fc:	58060963          	beqz	a2,0x1588e
   15300:	0325d793          	srli	a5,a1,0x32
   15304:	8b85                	andi	a5,a5,1
   15306:	0017b793          	seqz	a5,a5
   1530a:	0792                	slli	a5,a5,0x4
   1530c:	00889c63          	bne	a7,s0,0x15324
   15310:	01c6e533          	or	a0,a3,t3
   15314:	56050a63          	beqz	a0,0x15888
   15318:	00d69513          	slli	a0,a3,0xd
   1531c:	00054363          	bltz	a0,0x15322
   15320:	47c1                	li	a5,16
   15322:	c619                	beqz	a2,0x15330
   15324:	01c6e6b3          	or	a3,a3,t3
   15328:	34069c63          	bnez	a3,0x15680
   1532c:	86ae                	mv	a3,a1
   1532e:	8e76                	mv	t3,t4
   15330:	6421                	lui	s0,0x8
   15332:	147d                	addi	s0,s0,-1
   15334:	bf55                	j	0x152e8
   15336:	4781                	li	a5,0
   15338:	fe6895e3          	bne	a7,t1,0x15322
   1533c:	4781                	li	a5,0
   1533e:	bfc9                	j	0x15310
   15340:	026f0463          	beq	t5,t1,0x15368
   15344:	9e76                	add	t3,t3,t4
   15346:	00d584b3          	add	s1,a1,a3
   1534a:	01de36b3          	sltu	a3,t3,t4
   1534e:	00d48eb3          	add	t4,s1,a3
   15352:	03fe9693          	slli	a3,t4,0x3f
   15356:	001e5e13          	srli	t3,t3,0x1
   1535a:	01c6ee33          	or	t3,a3,t3
   1535e:	847a                	mv	s0,t5
   15360:	001ed693          	srli	a3,t4,0x1
   15364:	4781                	li	a5,0
   15366:	b749                	j	0x152e8
   15368:	00090763          	beqz	s2,0x15376
   1536c:	468d                	li	a3,3
   1536e:	00d91663          	bne	s2,a3,0x1537a
   15372:	00099963          	bnez	s3,0x15384
   15376:	847a                	mv	s0,t5
   15378:	a0b9                	j	0x153c6
   1537a:	4689                	li	a3,2
   1537c:	00d91463          	bne	s2,a3,0x15384
   15380:	fe099be3          	bnez	s3,0x15376
   15384:	56fd                	li	a3,-1
   15386:	5e7d                	li	t3,-1
   15388:	843e                	mv	s0,a5
   1538a:	4795                	li	a5,5
   1538c:	4609                	li	a2,2
   1538e:	0017e793          	ori	a5,a5,1
   15392:	4ac90b63          	beq	s2,a2,0x15848
   15396:	460d                	li	a2,3
   15398:	4ac90363          	beq	s2,a2,0x1583e
   1539c:	4a091863          	bnez	s2,0x1584c
   153a0:	00fe7613          	andi	a2,t3,15
   153a4:	4591                	li	a1,4
   153a6:	4ab60363          	beq	a2,a1,0x1584c
   153aa:	004e0593          	addi	a1,t3,4
   153ae:	01c5be33          	sltu	t3,a1,t3
   153b2:	96f2                	add	a3,a3,t3
   153b4:	8e2e                	mv	t3,a1
   153b6:	a959                	j	0x1584c
   153b8:	00090763          	beqz	s2,0x153c6
   153bc:	470d                	li	a4,3
   153be:	00e91863          	bne	s2,a4,0x153ce
   153c2:	00099b63          	bnez	s3,0x153d8
   153c6:	4681                	li	a3,0
   153c8:	4e01                	li	t3,0
   153ca:	4795                	li	a5,5
   153cc:	a4c1                	j	0x1568c
   153ce:	4709                	li	a4,2
   153d0:	00e91463          	bne	s2,a4,0x153d8
   153d4:	fe0999e3          	bnez	s3,0x153c6
   153d8:	56fd                	li	a3,-1
   153da:	5e7d                	li	t3,-1
   153dc:	ffe78413          	addi	s0,a5,-2
   153e0:	4701                	li	a4,0
   153e2:	b765                	j	0x1538a
   153e4:	0ce05563          	blez	a4,0x154ae
   153e8:	08089163          	bnez	a7,0x1546a
   153ec:	01c6e733          	or	a4,a3,t3
   153f0:	ef11                	bnez	a4,0x1540c
   153f2:	3e641b63          	bne	s0,t1,0x157e8
   153f6:	01d5ee33          	or	t3,a1,t4
   153fa:	420e0863          	beqz	t3,0x1582a
   153fe:	00d59793          	slli	a5,a1,0xd
   15402:	86ae                	mv	a3,a1
   15404:	8e76                	mv	t3,t4
   15406:	d207cde3          	bltz	a5,0x15140
   1540a:	b1fd                	j	0x150f8
   1540c:	fff7871b          	addiw	a4,a5,-1
   15410:	e315                	bnez	a4,0x15434
   15412:	41ce8e33          	sub	t3,t4,t3
   15416:	40d586b3          	sub	a3,a1,a3
   1541a:	01cebeb3          	sltu	t4,t4,t3
   1541e:	41d686b3          	sub	a3,a3,t4
   15422:	00c69793          	slli	a5,a3,0xc
   15426:	3a07dc63          	bgez	a5,0x157de
   1542a:	54fd                	li	s1,-1
   1542c:	80b5                	srli	s1,s1,0xd
   1542e:	8cf5                	and	s1,s1,a3
   15430:	8a72                	mv	s4,t3
   15432:	accd                	j	0x15724
   15434:	d0640ae3          	beq	s0,t1,0x15148
   15438:	07400793          	li	a5,116
   1543c:	06e7c463          	blt	a5,a4,0x154a4
   15440:	03f00793          	li	a5,63
   15444:	02e7c963          	blt	a5,a4,0x15476
   15448:	04000493          	li	s1,64
   1544c:	9c99                	subw	s1,s1,a4
   1544e:	009697b3          	sll	a5,a3,s1
   15452:	00ee5633          	srl	a2,t3,a4
   15456:	009e1e33          	sll	t3,t3,s1
   1545a:	8fd1                	or	a5,a5,a2
   1545c:	01c03e33          	snez	t3,t3
   15460:	01c7ee33          	or	t3,a5,t3
   15464:	00e6d6b3          	srl	a3,a3,a4
   15468:	b76d                	j	0x15412
   1546a:	cc640fe3          	beq	s0,t1,0x15148
   1546e:	4785                	li	a5,1
   15470:	17ce                	slli	a5,a5,0x33
   15472:	8edd                	or	a3,a3,a5
   15474:	b7d1                	j	0x15438
   15476:	fc07079b          	addiw	a5,a4,-64
   1547a:	04000613          	li	a2,64
   1547e:	00f6d7b3          	srl	a5,a3,a5
   15482:	4481                	li	s1,0
   15484:	00c70863          	beq	a4,a2,0x15494
   15488:	08000493          	li	s1,128
   1548c:	40e4873b          	subw	a4,s1,a4
   15490:	00e694b3          	sll	s1,a3,a4
   15494:	01c4ee33          	or	t3,s1,t3
   15498:	01c03e33          	snez	t3,t3
   1549c:	01c7ee33          	or	t3,a5,t3
   154a0:	4681                	li	a3,0
   154a2:	bf85                	j	0x15412
   154a4:	01c6ee33          	or	t3,a3,t3
   154a8:	01c03e33          	snez	t3,t3
   154ac:	bfd5                	j	0x154a0
   154ae:	cb61                	beqz	a4,0x1557e
   154b0:	e059                	bnez	s0,0x15536
   154b2:	01d5e633          	or	a2,a1,t4
   154b6:	ee01                	bnez	a2,0x154ce
   154b8:	32689b63          	bne	a7,t1,0x157ee
   154bc:	01c6e7b3          	or	a5,a3,t3
   154c0:	36078763          	beqz	a5,0x1582e
   154c4:	00d69793          	slli	a5,a3,0xd
   154c8:	8446                	mv	s0,a7
   154ca:	89fa                	mv	s3,t5
   154cc:	bb39                	j	0x151ea
   154ce:	00571d63          	bne	a4,t0,0x154e8
   154d2:	41de0eb3          	sub	t4,t3,t4
   154d6:	8e8d                	sub	a3,a3,a1
   154d8:	01de3e33          	sltu	t3,t3,t4
   154dc:	41c686b3          	sub	a3,a3,t3
   154e0:	8e76                	mv	t3,t4
   154e2:	8446                	mv	s0,a7
   154e4:	89fa                	mv	s3,t5
   154e6:	bf35                	j	0x15422
   154e8:	fc688ae3          	beq	a7,t1,0x154bc
   154ec:	fff7c793          	not	a5,a5
   154f0:	2781                	sext.w	a5,a5
   154f2:	07400713          	li	a4,116
   154f6:	06f74f63          	blt	a4,a5,0x15574
   154fa:	03f00713          	li	a4,63
   154fe:	04f74463          	blt	a4,a5,0x15546
   15502:	04000513          	li	a0,64
   15506:	9d1d                	subw	a0,a0,a5
   15508:	00fed833          	srl	a6,t4,a5
   1550c:	00a594b3          	sll	s1,a1,a0
   15510:	00ae9eb3          	sll	t4,t4,a0
   15514:	0104e4b3          	or	s1,s1,a6
   15518:	01d03eb3          	snez	t4,t4
   1551c:	01d4eeb3          	or	t4,s1,t4
   15520:	00f5d7b3          	srl	a5,a1,a5
   15524:	41de0eb3          	sub	t4,t3,t4
   15528:	40f687b3          	sub	a5,a3,a5
   1552c:	01de36b3          	sltu	a3,t3,t4
   15530:	40d786b3          	sub	a3,a5,a3
   15534:	b775                	j	0x154e0
   15536:	f86883e3          	beq	a7,t1,0x154bc
   1553a:	4705                	li	a4,1
   1553c:	174e                	slli	a4,a4,0x33
   1553e:	40f007bb          	negw	a5,a5
   15542:	8dd9                	or	a1,a1,a4
   15544:	b77d                	j	0x154f2
   15546:	fc07849b          	addiw	s1,a5,-64
   1554a:	04000713          	li	a4,64
   1554e:	0095d4b3          	srl	s1,a1,s1
   15552:	4501                	li	a0,0
   15554:	00e78863          	beq	a5,a4,0x15564
   15558:	08000513          	li	a0,128
   1555c:	40f507bb          	subw	a5,a0,a5
   15560:	00f59533          	sll	a0,a1,a5
   15564:	01d56eb3          	or	t4,a0,t4
   15568:	01d03eb3          	snez	t4,t4
   1556c:	01d4eeb3          	or	t4,s1,t4
   15570:	4781                	li	a5,0
   15572:	bf4d                	j	0x15524
   15574:	01d5e4b3          	or	s1,a1,t4
   15578:	00903eb3          	snez	t4,s1
   1557c:	bfd5                	j	0x15570
   1557e:	00140613          	addi	a2,s0,1 # 0x8001
   15582:	ffef8793          	addi	a5,t6,-2
   15586:	8ff1                	and	a5,a5,a2
   15588:	16079b63          	bnez	a5,0x156fe
   1558c:	01d5e533          	or	a0,a1,t4
   15590:	01c6e633          	or	a2,a3,t3
   15594:	e04d                	bnez	s0,0x15636
   15596:	e125                	bnez	a0,0x155f6
   15598:	24061e63          	bnez	a2,0x157f4
   1559c:	ffe90993          	addi	s3,s2,-2
   155a0:	0019b993          	seqz	s3,s3
   155a4:	4581                	li	a1,0
   155a6:	4e81                	li	t4,0
   155a8:	00beee33          	or	t3,t4,a1
   155ac:	280e0663          	beqz	t3,0x15838
   155b0:	001e9613          	slli	a2,t4,0x1
   155b4:	03fed793          	srli	a5,t4,0x3f
   155b8:	00159713          	slli	a4,a1,0x1
   155bc:	00767693          	andi	a3,a2,7
   155c0:	973e                	add	a4,a4,a5
   155c2:	4781                	li	a5,0
   155c4:	c28d                	beqz	a3,0x155e6
   155c6:	4789                	li	a5,2
   155c8:	24f90563          	beq	s2,a5,0x15812
   155cc:	478d                	li	a5,3
   155ce:	22f90963          	beq	s2,a5,0x15800
   155d2:	4785                	li	a5,1
   155d4:	00091963          	bnez	s2,0x155e6
   155d8:	00f67693          	andi	a3,a2,15
   155dc:	4511                	li	a0,4
   155de:	ffc63613          	sltiu	a2,a2,-4
   155e2:	22a69463          	bne	a3,a0,0x1580a
   155e6:	9351                	srli	a4,a4,0x34
   155e8:	00174713          	xori	a4,a4,1
   155ec:	8b05                	andi	a4,a4,1
   155ee:	86ae                	mv	a3,a1
   155f0:	8e76                	mv	t3,t4
   155f2:	4401                	li	s0,0
   155f4:	b9d5                	j	0x152e8
   155f6:	da4d                	beqz	a2,0x155a8
   155f8:	41ce8733          	sub	a4,t4,t3
   155fc:	00eeb633          	sltu	a2,t4,a4
   15600:	40d587b3          	sub	a5,a1,a3
   15604:	8f91                	sub	a5,a5,a2
   15606:	00c79613          	slli	a2,a5,0xc
   1560a:	00065c63          	bgez	a2,0x15622
   1560e:	41de0eb3          	sub	t4,t3,t4
   15612:	40b684b3          	sub	s1,a3,a1
   15616:	01de36b3          	sltu	a3,t3,t4
   1561a:	40d485b3          	sub	a1,s1,a3
   1561e:	89fa                	mv	s3,t5
   15620:	b761                	j	0x155a8
   15622:	00f76eb3          	or	t4,a4,a5
   15626:	1c0e9a63          	bnez	t4,0x157fa
   1562a:	ffe90993          	addi	s3,s2,-2
   1562e:	0019b993          	seqz	s3,s3
   15632:	4581                	li	a1,0
   15634:	bf95                	j	0x155a8
   15636:	02641e63          	bne	s0,t1,0x15672
   1563a:	24050363          	beqz	a0,0x15880
   1563e:	0325d793          	srli	a5,a1,0x32
   15642:	8b85                	andi	a5,a5,1
   15644:	0017b793          	seqz	a5,a5
   15648:	0792                	slli	a5,a5,0x4
   1564a:	02889963          	bne	a7,s0,0x1567c
   1564e:	c611                	beqz	a2,0x1565a
   15650:	00d69413          	slli	s0,a3,0xd
   15654:	00044363          	bltz	s0,0x1565a
   15658:	47c1                	li	a5,16
   1565a:	e10d                	bnez	a0,0x1567c
   1565c:	89fa                	mv	s3,t5
   1565e:	cc0619e3          	bnez	a2,0x15330
   15662:	4685                	li	a3,1
   15664:	6421                	lui	s0,0x8
   15666:	4e01                	li	t3,0
   15668:	4981                	li	s3,0
   1566a:	16ca                	slli	a3,a3,0x32
   1566c:	147d                	addi	s0,s0,-1
   1566e:	47c1                	li	a5,16
   15670:	a831                	j	0x1568c
   15672:	4781                	li	a5,0
   15674:	fe6893e3          	bne	a7,t1,0x1565a
   15678:	4781                	li	a5,0
   1567a:	bfd1                	j	0x1564e
   1567c:	ca0608e3          	beqz	a2,0x1532c
   15680:	4685                	li	a3,1
   15682:	6421                	lui	s0,0x8
   15684:	4981                	li	s3,0
   15686:	16ca                	slli	a3,a3,0x32
   15688:	4e01                	li	t3,0
   1568a:	147d                	addi	s0,s0,-1
   1568c:	00c69713          	slli	a4,a3,0xc
   15690:	00075c63          	bgez	a4,0x156a8
   15694:	6721                	lui	a4,0x8
   15696:	0405                	addi	s0,s0,1
   15698:	fff70613          	addi	a2,a4,-1 # 0x7fff
   1569c:	1ac40d63          	beq	s0,a2,0x15856
   156a0:	577d                	li	a4,-1
   156a2:	174e                	slli	a4,a4,0x33
   156a4:	177d                	addi	a4,a4,-1
   156a6:	8ef9                	and	a3,a3,a4
   156a8:	6721                	lui	a4,0x8
   156aa:	03d69513          	slli	a0,a3,0x3d
   156ae:	003e5e13          	srli	t3,t3,0x3
   156b2:	177d                	addi	a4,a4,-1
   156b4:	01c56533          	or	a0,a0,t3
   156b8:	828d                	srli	a3,a3,0x3
   156ba:	00e41963          	bne	s0,a4,0x156cc
   156be:	8d55                	or	a0,a0,a3
   156c0:	4681                	li	a3,0
   156c2:	c509                	beqz	a0,0x156cc
   156c4:	4685                	li	a3,1
   156c6:	16be                	slli	a3,a3,0x2f
   156c8:	4501                	li	a0,0
   156ca:	4981                	li	s3,0
   156cc:	65a1                	lui	a1,0x8
   156ce:	577d                	li	a4,-1
   156d0:	15fd                	addi	a1,a1,-1
   156d2:	01075613          	srli	a2,a4,0x10
   156d6:	8de1                	and	a1,a1,s0
   156d8:	15c2                	slli	a1,a1,0x30
   156da:	8ef1                	and	a3,a3,a2
   156dc:	8dd5                	or	a1,a1,a3
   156de:	8305                	srli	a4,a4,0x1
   156e0:	19fe                	slli	s3,s3,0x3f
   156e2:	8df9                	and	a1,a1,a4
   156e4:	0135e5b3          	or	a1,a1,s3
   156e8:	c399                	beqz	a5,0x156ee
   156ea:	0017a073          	csrs	fflags,a5
   156ee:	70a2                	ld	ra,40(sp)
   156f0:	7402                	ld	s0,32(sp)
   156f2:	64e2                	ld	s1,24(sp)
   156f4:	6942                	ld	s2,16(sp)
   156f6:	69a2                	ld	s3,8(sp)
   156f8:	6a02                	ld	s4,0(sp)
   156fa:	6145                	addi	sp,sp,48
   156fc:	8082                	ret
   156fe:	41ce8a33          	sub	s4,t4,t3
   15702:	014eb7b3          	sltu	a5,t4,s4
   15706:	40d584b3          	sub	s1,a1,a3
   1570a:	8c9d                	sub	s1,s1,a5
   1570c:	00c49793          	slli	a5,s1,0xc
   15710:	0607dc63          	bgez	a5,0x15788
   15714:	41de0a33          	sub	s4,t3,t4
   15718:	40b684b3          	sub	s1,a3,a1
   1571c:	014e36b3          	sltu	a3,t3,s4
   15720:	8c95                	sub	s1,s1,a3
   15722:	89fa                	mv	s3,t5
   15724:	c4bd                	beqz	s1,0x15792
   15726:	8526                	mv	a0,s1
   15728:	2e4010ef          	jal	ra,0x16a0c
   1572c:	2501                	sext.w	a0,a0
   1572e:	ff45061b          	addiw	a2,a0,-12
   15732:	03f00793          	li	a5,63
   15736:	8eb2                	mv	t4,a2
   15738:	06c7c363          	blt	a5,a2,0x1579e
   1573c:	04000693          	li	a3,64
   15740:	9e91                	subw	a3,a3,a2
   15742:	00c494b3          	sll	s1,s1,a2
   15746:	00da56b3          	srl	a3,s4,a3
   1574a:	8cd5                	or	s1,s1,a3
   1574c:	00ca1e33          	sll	t3,s4,a2
   15750:	08864263          	blt	a2,s0,0x157d4
   15754:	408e843b          	subw	s0,t4,s0
   15758:	0014069b          	addiw	a3,s0,1
   1575c:	03f00713          	li	a4,63
   15760:	04d74563          	blt	a4,a3,0x157aa
   15764:	04000613          	li	a2,64
   15768:	9e15                	subw	a2,a2,a3
   1576a:	00c49eb3          	sll	t4,s1,a2
   1576e:	00de5533          	srl	a0,t3,a3
   15772:	00ce1633          	sll	a2,t3,a2
   15776:	00aeeeb3          	or	t4,t4,a0
   1577a:	00c03633          	snez	a2,a2
   1577e:	00ceeeb3          	or	t4,t4,a2
   15782:	00d4d5b3          	srl	a1,s1,a3
   15786:	b50d                	j	0x155a8
   15788:	009a6eb3          	or	t4,s4,s1
   1578c:	f80e9ce3          	bnez	t4,0x15724
   15790:	bd69                	j	0x1562a
   15792:	8552                	mv	a0,s4
   15794:	278010ef          	jal	ra,0x16a0c
   15798:	0405051b          	addiw	a0,a0,64
   1579c:	bf49                	j	0x1572e
   1579e:	fb45049b          	addiw	s1,a0,-76
   157a2:	009a14b3          	sll	s1,s4,s1
   157a6:	4e01                	li	t3,0
   157a8:	b765                	j	0x15750
   157aa:	fc140e9b          	addiw	t4,s0,-63
   157ae:	04000713          	li	a4,64
   157b2:	01d4deb3          	srl	t4,s1,t4
   157b6:	4601                	li	a2,0
   157b8:	00e68763          	beq	a3,a4,0x157c6
   157bc:	08000613          	li	a2,128
   157c0:	9e15                	subw	a2,a2,a3
   157c2:	00c49633          	sll	a2,s1,a2
   157c6:	00ce6633          	or	a2,t3,a2
   157ca:	00c03633          	snez	a2,a2
   157ce:	00ceeeb3          	or	t4,t4,a2
   157d2:	b585                	j	0x15632
   157d4:	56fd                	li	a3,-1
   157d6:	16ce                	slli	a3,a3,0x33
   157d8:	16fd                	addi	a3,a3,-1
   157da:	8c11                	sub	s0,s0,a2
   157dc:	8ee5                	and	a3,a3,s1
   157de:	960411e3          	bnez	s0,0x15140
   157e2:	85b6                	mv	a1,a3
   157e4:	8ef2                	mv	t4,t3
   157e6:	b3c9                	j	0x155a8
   157e8:	86ae                	mv	a3,a1
   157ea:	8e76                	mv	t3,t4
   157ec:	bfcd                	j	0x157de
   157ee:	8446                	mv	s0,a7
   157f0:	89fa                	mv	s3,t5
   157f2:	b7f5                	j	0x157de
   157f4:	85b6                	mv	a1,a3
   157f6:	8ef2                	mv	t4,t3
   157f8:	b51d                	j	0x1561e
   157fa:	85be                	mv	a1,a5
   157fc:	8eba                	mv	t4,a4
   157fe:	b36d                	j	0x155a8
   15800:	4785                	li	a5,1
   15802:	de0992e3          	bnez	s3,0x155e6
   15806:	ff863613          	sltiu	a2,a2,-8
   1580a:	00164613          	xori	a2,a2,1
   1580e:	9732                	add	a4,a4,a2
   15810:	bbd9                	j	0x155e6
   15812:	4785                	li	a5,1
   15814:	dc0989e3          	beqz	s3,0x155e6
   15818:	b7fd                	j	0x15806
   1581a:	4681                	li	a3,0
   1581c:	4e01                	li	t3,0
   1581e:	4781                	li	a5,0
   15820:	b5b5                	j	0x1568c
   15822:	4681                	li	a3,0
   15824:	4e01                	li	t3,0
   15826:	8446                	mv	s0,a7
   15828:	bfdd                	j	0x1581e
   1582a:	4681                	li	a3,0
   1582c:	bfcd                	j	0x1581e
   1582e:	4681                	li	a3,0
   15830:	4e01                	li	t3,0
   15832:	8446                	mv	s0,a7
   15834:	89fa                	mv	s3,t5
   15836:	b7e5                	j	0x1581e
   15838:	4681                	li	a3,0
   1583a:	4401                	li	s0,0
   1583c:	b7cd                	j	0x1581e
   1583e:	00099763          	bnez	s3,0x1584c
   15842:	008e0593          	addi	a1,t3,8
   15846:	b6a5                	j	0x153ae
   15848:	fe099de3          	bnez	s3,0x15842
   1584c:	e40700e3          	beqz	a4,0x1568c
   15850:	0027e793          	ori	a5,a5,2
   15854:	bd25                	j	0x1568c
   15856:	4e01                	li	t3,0
   15858:	02090063          	beqz	s2,0x15878
   1585c:	468d                	li	a3,3
   1585e:	00d91863          	bne	s2,a3,0x1586e
   15862:	00098b63          	beqz	s3,0x15878
   15866:	5e7d                	li	t3,-1
   15868:	ffe70413          	addi	s0,a4,-2 # 0x7ffe
   1586c:	a031                	j	0x15878
   1586e:	4689                	li	a3,2
   15870:	fed91be3          	bne	s2,a3,0x15866
   15874:	fe0989e3          	beqz	s3,0x15866
   15878:	0057e793          	ori	a5,a5,5
   1587c:	86f2                	mv	a3,t3
   1587e:	b52d                	j	0x156a8
   15880:	4781                	li	a5,0
   15882:	dc889de3          	bne	a7,s0,0x1565c
   15886:	bbcd                	j	0x15678
   15888:	aa0604e3          	beqz	a2,0x15330
   1588c:	b445                	j	0x1532c
   1588e:	ac889be3          	bne	a7,s0,0x15364
   15892:	b46d                	j	0x1533c
   15894:	002027f3          	frrm	a5
   15898:	6721                	lui	a4,0x8
   1589a:	0305d893          	srli	a7,a1,0x30
   1589e:	177d                	addi	a4,a4,-1
   158a0:	57fd                	li	a5,-1
   158a2:	83c1                	srli	a5,a5,0x10
   158a4:	0306d313          	srli	t1,a3,0x30
   158a8:	00e8f8b3          	and	a7,a7,a4
   158ac:	00f5f833          	and	a6,a1,a5
   158b0:	00e37333          	and	t1,t1,a4
   158b4:	8ff5                	and	a5,a5,a3
   158b6:	91fd                	srli	a1,a1,0x3f
   158b8:	92fd                	srli	a3,a3,0x3f
   158ba:	00e89963          	bne	a7,a4,0x158cc
   158be:	00a86733          	or	a4,a6,a0
   158c2:	e739                	bnez	a4,0x15910
   158c4:	4705                	li	a4,1
   158c6:	03131763          	bne	t1,a7,0x158f4
   158ca:	a019                	j	0x158d0
   158cc:	00e31563          	bne	t1,a4,0x158d6
   158d0:	00c7e733          	or	a4,a5,a2
   158d4:	e71d                	bnez	a4,0x15902
   158d6:	4705                	li	a4,1
   158d8:	00689e63          	bne	a7,t1,0x158f4
   158dc:	00f81c63          	bne	a6,a5,0x158f4
   158e0:	00c51a63          	bne	a0,a2,0x158f4
   158e4:	00d58a63          	beq	a1,a3,0x158f8
   158e8:	00089663          	bnez	a7,0x158f4
   158ec:	00a86733          	or	a4,a6,a0
   158f0:	00e03733          	snez	a4,a4
   158f4:	853a                	mv	a0,a4
   158f6:	8082                	ret
   158f8:	4701                	li	a4,0
   158fa:	bfed                	j	0x158f4
   158fc:	00186073          	csrsi	fflags,16
   15900:	a02d                	j	0x1592a
   15902:	6721                	lui	a4,0x8
   15904:	177d                	addi	a4,a4,-1
   15906:	02e89063          	bne	a7,a4,0x15926
   1590a:	00a86733          	or	a4,a6,a0
   1590e:	cf01                	beqz	a4,0x15926
   15910:	02f85813          	srli	a6,a6,0x2f
   15914:	fe0804e3          	beqz	a6,0x158fc
   15918:	6721                	lui	a4,0x8
   1591a:	177d                	addi	a4,a4,-1
   1591c:	4505                	li	a0,1
   1591e:	00e31863          	bne	t1,a4,0x1592e
   15922:	8e5d                	or	a2,a2,a5
   15924:	c609                	beqz	a2,0x1592e
   15926:	93bd                	srli	a5,a5,0x2f
   15928:	dbf1                	beqz	a5,0x158fc
   1592a:	4505                	li	a0,1
   1592c:	8082                	ret
   1592e:	8082                	ret
   15930:	711d                	addi	sp,sp,-96
   15932:	f456                	sd	s5,40(sp)
   15934:	e466                	sd	s9,8(sp)
   15936:	ec86                	sd	ra,88(sp)
   15938:	e8a2                	sd	s0,80(sp)
   1593a:	e4a6                	sd	s1,72(sp)
   1593c:	e0ca                	sd	s2,64(sp)
   1593e:	fc4e                	sd	s3,56(sp)
   15940:	f852                	sd	s4,48(sp)
   15942:	f05a                	sd	s6,32(sp)
   15944:	ec5e                	sd	s7,24(sp)
   15946:	e862                	sd	s8,16(sp)
   15948:	8cb2                	mv	s9,a2
   1594a:	8ab6                	mv	s5,a3
   1594c:	002029f3          	frrm	s3
   15950:	6721                	lui	a4,0x8
   15952:	54fd                	li	s1,-1
   15954:	0305db93          	srli	s7,a1,0x30
   15958:	177d                	addi	a4,a4,-1
   1595a:	80c1                	srli	s1,s1,0x10
   1595c:	00ebf7b3          	and	a5,s7,a4
   15960:	2981                	sext.w	s3,s3
   15962:	8ced                	and	s1,s1,a1
   15964:	03f5db13          	srli	s6,a1,0x3f
   15968:	c78d                	beqz	a5,0x15992
   1596a:	8a2a                	mv	s4,a0
   1596c:	0007851b          	sext.w	a0,a5
   15970:	08e50063          	beq	a0,a4,0x159f0
   15974:	03da5713          	srli	a4,s4,0x3d
   15978:	048e                	slli	s1,s1,0x3
   1597a:	8f45                	or	a4,a4,s1
   1597c:	7571                	lui	a0,0xffffc
   1597e:	4485                	li	s1,1
   15980:	14ce                	slli	s1,s1,0x33
   15982:	0505                	addi	a0,a0,1
   15984:	8cd9                	or	s1,s1,a4
   15986:	0a0e                	slli	s4,s4,0x3
   15988:	00a78bb3          	add	s7,a5,a0
   1598c:	4c01                	li	s8,0
   1598e:	4901                	li	s2,0
   15990:	a895                	j	0x15a04
   15992:	00a4e7b3          	or	a5,s1,a0
   15996:	842a                	mv	s0,a0
   15998:	cfe1                	beqz	a5,0x15a70
   1599a:	cc9d                	beqz	s1,0x159d8
   1599c:	8526                	mv	a0,s1
   1599e:	06e010ef          	jal	ra,0x16a0c
   159a2:	2501                	sext.w	a0,a0
   159a4:	ff150713          	addi	a4,a0,-15 # 0xffffffffffffbff1
   159a8:	03c00693          	li	a3,60
   159ac:	0007079b          	sext.w	a5,a4
   159b0:	02e6ca63          	blt	a3,a4,0x159e4
   159b4:	03d00713          	li	a4,61
   159b8:	00378a1b          	addiw	s4,a5,3
   159bc:	40f707bb          	subw	a5,a4,a5
   159c0:	014494b3          	sll	s1,s1,s4
   159c4:	00f457b3          	srl	a5,s0,a5
   159c8:	8cdd                	or	s1,s1,a5
   159ca:	01441a33          	sll	s4,s0,s4
   159ce:	7bf1                	lui	s7,0xffffc
   159d0:	0bc5                	addi	s7,s7,17
   159d2:	40ab8bb3          	sub	s7,s7,a0
   159d6:	bf5d                	j	0x1598c
   159d8:	034010ef          	jal	ra,0x16a0c
   159dc:	2501                	sext.w	a0,a0
   159de:	04050513          	addi	a0,a0,64
   159e2:	b7c9                	j	0x159a4
   159e4:	fc37849b          	addiw	s1,a5,-61
   159e8:	009414b3          	sll	s1,s0,s1
   159ec:	4a01                	li	s4,0
   159ee:	b7c5                	j	0x159ce
   159f0:	0144e7b3          	or	a5,s1,s4
   159f4:	c3d9                	beqz	a5,0x15a7a
   159f6:	01049793          	slli	a5,s1,0x10
   159fa:	8baa                	mv	s7,a0
   159fc:	4c0d                	li	s8,3
   159fe:	4941                	li	s2,16
   15a00:	f807c7e3          	bltz	a5,0x1598e
   15a04:	577d                	li	a4,-1
   15a06:	8341                	srli	a4,a4,0x10
   15a08:	00eaf433          	and	s0,s5,a4
   15a0c:	6721                	lui	a4,0x8
   15a0e:	030ad513          	srli	a0,s5,0x30
   15a12:	177d                	addi	a4,a4,-1
   15a14:	00e57633          	and	a2,a0,a4
   15a18:	87e6                	mv	a5,s9
   15a1a:	03fada93          	srli	s5,s5,0x3f
   15a1e:	c23d                	beqz	a2,0x15a84
   15a20:	0006051b          	sext.w	a0,a2
   15a24:	0ce50063          	beq	a0,a4,0x15ae4
   15a28:	00341713          	slli	a4,s0,0x3
   15a2c:	03dcd693          	srli	a3,s9,0x3d
   15a30:	00e6e433          	or	s0,a3,a4
   15a34:	7571                	lui	a0,0xffffc
   15a36:	4705                	li	a4,1
   15a38:	174e                	slli	a4,a4,0x33
   15a3a:	0505                	addi	a0,a0,1
   15a3c:	8c59                	or	s0,s0,a4
   15a3e:	003c9793          	slli	a5,s9,0x3
   15a42:	9532                	add	a0,a0,a2
   15a44:	4701                	li	a4,0
   15a46:	002c1693          	slli	a3,s8,0x2
   15a4a:	8ed9                	or	a3,a3,a4
   15a4c:	955e                	add	a0,a0,s7
   15a4e:	16fd                	addi	a3,a3,-1
   15a50:	4639                	li	a2,14
   15a52:	015b4833          	xor	a6,s6,s5
   15a56:	00150893          	addi	a7,a0,1 # 0xffffffffffffc001
   15a5a:	10d66063          	bltu	a2,a3,0x15b5a
   15a5e:	00002617          	auipc	a2,0x2
   15a62:	31660613          	addi	a2,a2,790 # 0x17d74
   15a66:	068a                	slli	a3,a3,0x2
   15a68:	96b2                	add	a3,a3,a2
   15a6a:	4294                	lw	a3,0(a3)
   15a6c:	96b2                	add	a3,a3,a2
   15a6e:	8682                	jr	a3
   15a70:	4481                	li	s1,0
   15a72:	4a01                	li	s4,0
   15a74:	4b81                	li	s7,0
   15a76:	4c05                	li	s8,1
   15a78:	bf19                	j	0x1598e
   15a7a:	4481                	li	s1,0
   15a7c:	4a01                	li	s4,0
   15a7e:	8baa                	mv	s7,a0
   15a80:	4c09                	li	s8,2
   15a82:	b731                	j	0x1598e
   15a84:	019467b3          	or	a5,s0,s9
   15a88:	cba5                	beqz	a5,0x15af8
   15a8a:	c021                	beqz	s0,0x15aca
   15a8c:	8522                	mv	a0,s0
   15a8e:	77f000ef          	jal	ra,0x16a0c
   15a92:	2501                	sext.w	a0,a0
   15a94:	ff150793          	addi	a5,a0,-15
   15a98:	03c00713          	li	a4,60
   15a9c:	0007869b          	sext.w	a3,a5
   15aa0:	02f74c63          	blt	a4,a5,0x15ad8
   15aa4:	03d00613          	li	a2,61
   15aa8:	0036879b          	addiw	a5,a3,3
   15aac:	40d606bb          	subw	a3,a2,a3
   15ab0:	00f41733          	sll	a4,s0,a5
   15ab4:	00dcd6b3          	srl	a3,s9,a3
   15ab8:	00e6e433          	or	s0,a3,a4
   15abc:	00fc97b3          	sll	a5,s9,a5
   15ac0:	7771                	lui	a4,0xffffc
   15ac2:	0745                	addi	a4,a4,17
   15ac4:	40a70533          	sub	a0,a4,a0
   15ac8:	bfb5                	j	0x15a44
   15aca:	8566                	mv	a0,s9
   15acc:	741000ef          	jal	ra,0x16a0c
   15ad0:	2501                	sext.w	a0,a0
   15ad2:	04050513          	addi	a0,a0,64
   15ad6:	bf7d                	j	0x15a94
   15ad8:	fc36871b          	addiw	a4,a3,-61
   15adc:	00ec9433          	sll	s0,s9,a4
   15ae0:	4781                	li	a5,0
   15ae2:	bff9                	j	0x15ac0
   15ae4:	01946733          	or	a4,s0,s9
   15ae8:	cf09                	beqz	a4,0x15b02
   15aea:	01041713          	slli	a4,s0,0x10
   15aee:	00074e63          	bltz	a4,0x15b0a
   15af2:	470d                	li	a4,3
   15af4:	4941                	li	s2,16
   15af6:	bf81                	j	0x15a46
   15af8:	4401                	li	s0,0
   15afa:	4781                	li	a5,0
   15afc:	4501                	li	a0,0
   15afe:	4705                	li	a4,1
   15b00:	b799                	j	0x15a46
   15b02:	4401                	li	s0,0
   15b04:	4781                	li	a5,0
   15b06:	4709                	li	a4,2
   15b08:	bf3d                	j	0x15a46
   15b0a:	470d                	li	a4,3
   15b0c:	bf2d                	j	0x15a46
   15b0e:	4705                	li	a4,1
   15b10:	66a1                	lui	a3,0x8
   15b12:	173e                	slli	a4,a4,0x2f
   15b14:	4501                	li	a0,0
   15b16:	16fd                	addi	a3,a3,-1
   15b18:	4801                	li	a6,0
   15b1a:	4941                	li	s2,16
   15b1c:	6621                	lui	a2,0x8
   15b1e:	57fd                	li	a5,-1
   15b20:	167d                	addi	a2,a2,-1
   15b22:	0107d593          	srli	a1,a5,0x10
   15b26:	8ef1                	and	a3,a3,a2
   15b28:	16c2                	slli	a3,a3,0x30
   15b2a:	8df9                	and	a1,a1,a4
   15b2c:	8dd5                	or	a1,a1,a3
   15b2e:	8385                	srli	a5,a5,0x1
   15b30:	187e                	slli	a6,a6,0x3f
   15b32:	8dfd                	and	a1,a1,a5
   15b34:	0105e5b3          	or	a1,a1,a6
   15b38:	00090463          	beqz	s2,0x15b40
   15b3c:	00192073          	csrs	fflags,s2
   15b40:	60e6                	ld	ra,88(sp)
   15b42:	6446                	ld	s0,80(sp)
   15b44:	64a6                	ld	s1,72(sp)
   15b46:	6906                	ld	s2,64(sp)
   15b48:	79e2                	ld	s3,56(sp)
   15b4a:	7a42                	ld	s4,48(sp)
   15b4c:	7aa2                	ld	s5,40(sp)
   15b4e:	7b02                	ld	s6,32(sp)
   15b50:	6be2                	ld	s7,24(sp)
   15b52:	6c42                	ld	s8,16(sp)
   15b54:	6ca2                	ld	s9,8(sp)
   15b56:	6125                	addi	sp,sp,96
   15b58:	8082                	ret
   15b5a:	577d                	li	a4,-1
   15b5c:	9301                	srli	a4,a4,0x20
   15b5e:	01448ab3          	add	s5,s1,s4
   15b62:	008783b3          	add	t2,a5,s0
   15b66:	020a5f13          	srli	t5,s4,0x20
   15b6a:	0207d693          	srli	a3,a5,0x20
   15b6e:	014abfb3          	sltu	t6,s5,s4
   15b72:	00f3b2b3          	sltu	t0,t2,a5
   15b76:	00ea7a33          	and	s4,s4,a4
   15b7a:	8ff9                	and	a5,a5,a4
   15b7c:	034785b3          	mul	a1,a5,s4
   15b80:	000f8e9b          	sext.w	t4,t6
   15b84:	0002861b          	sext.w	a2,t0
   15b88:	02ff07b3          	mul	a5,t5,a5
   15b8c:	02df0733          	mul	a4,t5,a3
   15b90:	034686b3          	mul	a3,a3,s4
   15b94:	0205da13          	srli	s4,a1,0x20
   15b98:	96be                	add	a3,a3,a5
   15b9a:	9a36                	add	s4,s4,a3
   15b9c:	00fa7563          	bgeu	s4,a5,0x15ba6
   15ba0:	4785                	li	a5,1
   15ba2:	1782                	slli	a5,a5,0x20
   15ba4:	973e                	add	a4,a4,a5
   15ba6:	020a5f13          	srli	t5,s4,0x20
   15baa:	9f3a                	add	t5,t5,a4
   15bac:	577d                	li	a4,-1
   15bae:	9301                	srli	a4,a4,0x20
   15bb0:	00ea7333          	and	t1,s4,a4
   15bb4:	00eaf7b3          	and	a5,s5,a4
   15bb8:	8df9                	and	a1,a1,a4
   15bba:	020ada13          	srli	s4,s5,0x20
   15bbe:	0203d693          	srli	a3,t2,0x20
   15bc2:	00e3f733          	and	a4,t2,a4
   15bc6:	1302                	slli	t1,t1,0x20
   15bc8:	932e                	add	t1,t1,a1
   15bca:	02e785b3          	mul	a1,a5,a4
   15bce:	02ea0733          	mul	a4,s4,a4
   15bd2:	02da0a33          	mul	s4,s4,a3
   15bd6:	02f686b3          	mul	a3,a3,a5
   15bda:	0205d793          	srli	a5,a1,0x20
   15bde:	96ba                	add	a3,a3,a4
   15be0:	97b6                	add	a5,a5,a3
   15be2:	00e7f563          	bgeu	a5,a4,0x15bec
   15be6:	4705                	li	a4,1
   15be8:	1702                	slli	a4,a4,0x20
   15bea:	9a3a                	add	s4,s4,a4
   15bec:	56fd                	li	a3,-1
   15bee:	9281                	srli	a3,a3,0x20
   15bf0:	0207de13          	srli	t3,a5,0x20
   15bf4:	8ff5                	and	a5,a5,a3
   15bf6:	00d5f733          	and	a4,a1,a3
   15bfa:	1782                	slli	a5,a5,0x20
   15bfc:	0204d593          	srli	a1,s1,0x20
   15c00:	97ba                	add	a5,a5,a4
   15c02:	8cf5                	and	s1,s1,a3
   15c04:	02045713          	srli	a4,s0,0x20
   15c08:	8c75                	and	s0,s0,a3
   15c0a:	02940b33          	mul	s6,s0,s1
   15c0e:	02858433          	mul	s0,a1,s0
   15c12:	02e585b3          	mul	a1,a1,a4
   15c16:	02970733          	mul	a4,a4,s1
   15c1a:	020b5493          	srli	s1,s6,0x20
   15c1e:	9722                	add	a4,a4,s0
   15c20:	94ba                	add	s1,s1,a4
   15c22:	0084f563          	bgeu	s1,s0,0x15c2c
   15c26:	4705                	li	a4,1
   15c28:	1702                	slli	a4,a4,0x20
   15c2a:	95ba                	add	a1,a1,a4
   15c2c:	0204d713          	srli	a4,s1,0x20
   15c30:	95ba                	add	a1,a1,a4
   15c32:	577d                	li	a4,-1
   15c34:	9301                	srli	a4,a4,0x20
   15c36:	00e4f6b3          	and	a3,s1,a4
   15c3a:	00eb7b33          	and	s6,s6,a4
   15c3e:	01e78733          	add	a4,a5,t5
   15c42:	01e737b3          	sltu	a5,a4,t5
   15c46:	9e3e                	add	t3,t3,a5
   15c48:	40c0063b          	negw	a2,a2
   15c4c:	9a72                	add	s4,s4,t3
   15c4e:	01567633          	and	a2,a2,s5
   15c52:	41d00e3b          	negw	t3,t4
   15c56:	9652                	add	a2,a2,s4
   15c58:	005fffb3          	and	t6,t6,t0
   15c5c:	00fa37b3          	sltu	a5,s4,a5
   15c60:	007e73b3          	and	t2,t3,t2
   15c64:	00c38e33          	add	t3,t2,a2
   15c68:	97fe                	add	a5,a5,t6
   15c6a:	01463a33          	sltu	s4,a2,s4
   15c6e:	40670fb3          	sub	t6,a4,t1
   15c72:	97d2                	add	a5,a5,s4
   15c74:	41ee0eb3          	sub	t4,t3,t5
   15c78:	1682                	slli	a3,a3,0x20
   15c7a:	00ce3633          	sltu	a2,t3,a2
   15c7e:	01f732b3          	sltu	t0,a4,t6
   15c82:	963e                	add	a2,a2,a5
   15c84:	96da                	add	a3,a3,s6
   15c86:	01de37b3          	sltu	a5,t3,t4
   15c8a:	4401                	li	s0,0
   15c8c:	405e8eb3          	sub	t4,t4,t0
   15c90:	01f77663          	bgeu	a4,t6,0x15c9c
   15c94:	41cf0e33          	sub	t3,t5,t3
   15c98:	001e3413          	seqz	s0,t3
   15c9c:	00b60733          	add	a4,a2,a1
   15ca0:	40df8633          	sub	a2,t6,a3
   15ca4:	00f46e33          	or	t3,s0,a5
   15ca8:	40be85b3          	sub	a1,t4,a1
   15cac:	00cfb7b3          	sltu	a5,t6,a2
   15cb0:	00bebeb3          	sltu	t4,t4,a1
   15cb4:	40f687b3          	sub	a5,a3,a5
   15cb8:	4401                	li	s0,0
   15cba:	00cff463          	bgeu	t6,a2,0x15cc2
   15cbe:	0015b413          	seqz	s0,a1
   15cc2:	95be                	add	a1,a1,a5
   15cc4:	00d5b6b3          	sltu	a3,a1,a3
   15cc8:	9736                	add	a4,a4,a3
   15cca:	01d46eb3          	or	t4,s0,t4
   15cce:	41c70733          	sub	a4,a4,t3
   15cd2:	00d61793          	slli	a5,a2,0xd
   15cd6:	41d70733          	sub	a4,a4,t4
   15cda:	0736                	slli	a4,a4,0xd
   15cdc:	0335d413          	srli	s0,a1,0x33
   15ce0:	0067e7b3          	or	a5,a5,t1
   15ce4:	8c59                	or	s0,s0,a4
   15ce6:	00f037b3          	snez	a5,a5
   15cea:	924d                	srli	a2,a2,0x33
   15cec:	8fd1                	or	a5,a5,a2
   15cee:	05b6                	slli	a1,a1,0xd
   15cf0:	00b41713          	slli	a4,s0,0xb
   15cf4:	8fcd                	or	a5,a5,a1
   15cf6:	06075a63          	bgez	a4,0x15d6a
   15cfa:	0017d713          	srli	a4,a5,0x1
   15cfe:	8b85                	andi	a5,a5,1
   15d00:	03f41513          	slli	a0,s0,0x3f
   15d04:	8fd9                	or	a5,a5,a4
   15d06:	8fc9                	or	a5,a5,a0
   15d08:	8005                	srli	s0,s0,0x1
   15d0a:	6691                	lui	a3,0x4
   15d0c:	16fd                	addi	a3,a3,-1
   15d0e:	96c6                	add	a3,a3,a7
   15d10:	0cd05663          	blez	a3,0x15ddc
   15d14:	0077f713          	andi	a4,a5,7
   15d18:	c335                	beqz	a4,0x15d7c
   15d1a:	4709                	li	a4,2
   15d1c:	00196913          	ori	s2,s2,1
   15d20:	04e98c63          	beq	s3,a4,0x15d78
   15d24:	470d                	li	a4,3
   15d26:	04e98463          	beq	s3,a4,0x15d6e
   15d2a:	04099963          	bnez	s3,0x15d7c
   15d2e:	00f7f713          	andi	a4,a5,15
   15d32:	4611                	li	a2,4
   15d34:	04c70463          	beq	a4,a2,0x15d7c
   15d38:	00478713          	addi	a4,a5,4
   15d3c:	00f737b3          	sltu	a5,a4,a5
   15d40:	943e                	add	s0,s0,a5
   15d42:	87ba                	mv	a5,a4
   15d44:	a825                	j	0x15d7c
   15d46:	885a                	mv	a6,s6
   15d48:	8426                	mv	s0,s1
   15d4a:	87d2                	mv	a5,s4
   15d4c:	8762                	mv	a4,s8
   15d4e:	4689                	li	a3,2
   15d50:	1ed70b63          	beq	a4,a3,0x15f46
   15d54:	468d                	li	a3,3
   15d56:	1ed70d63          	beq	a4,a3,0x15f50
   15d5a:	4685                	li	a3,1
   15d5c:	fad717e3          	bne	a4,a3,0x15d0a
   15d60:	4701                	li	a4,0
   15d62:	4501                	li	a0,0
   15d64:	aad9                	j	0x15f3a
   15d66:	8856                	mv	a6,s5
   15d68:	b7dd                	j	0x15d4e
   15d6a:	88aa                	mv	a7,a0
   15d6c:	bf79                	j	0x15d0a
   15d6e:	00081763          	bnez	a6,0x15d7c
   15d72:	00878713          	addi	a4,a5,8
   15d76:	b7d9                	j	0x15d3c
   15d78:	fe081de3          	bnez	a6,0x15d72
   15d7c:	00b41713          	slli	a4,s0,0xb
   15d80:	00075863          	bgez	a4,0x15d90
   15d84:	577d                	li	a4,-1
   15d86:	1752                	slli	a4,a4,0x34
   15d88:	177d                	addi	a4,a4,-1
   15d8a:	6691                	lui	a3,0x4
   15d8c:	8c79                	and	s0,s0,a4
   15d8e:	96c6                	add	a3,a3,a7
   15d90:	65a1                	lui	a1,0x8
   15d92:	ffe58713          	addi	a4,a1,-2 # 0x7ffe
   15d96:	00d74963          	blt	a4,a3,0x15da8
   15d9a:	838d                	srli	a5,a5,0x3
   15d9c:	03d41513          	slli	a0,s0,0x3d
   15da0:	8d5d                	or	a0,a0,a5
   15da2:	00345713          	srli	a4,s0,0x3
   15da6:	bb9d                	j	0x15b1c
   15da8:	4789                	li	a5,2
   15daa:	02f98363          	beq	s3,a5,0x15dd0
   15dae:	478d                	li	a5,3
   15db0:	fff58693          	addi	a3,a1,-1
   15db4:	00f98a63          	beq	s3,a5,0x15dc8
   15db8:	00098a63          	beqz	s3,0x15dcc
   15dbc:	557d                	li	a0,-1
   15dbe:	86ba                	mv	a3,a4
   15dc0:	00596913          	ori	s2,s2,5
   15dc4:	872a                	mv	a4,a0
   15dc6:	bb99                	j	0x15b1c
   15dc8:	fe081ae3          	bnez	a6,0x15dbc
   15dcc:	4501                	li	a0,0
   15dce:	bfcd                	j	0x15dc0
   15dd0:	fe0806e3          	beqz	a6,0x15dbc
   15dd4:	4501                	li	a0,0
   15dd6:	fff58693          	addi	a3,a1,-1
   15dda:	b7dd                	j	0x15dc0
   15ddc:	4605                	li	a2,1
   15dde:	eaa9                	bnez	a3,0x15e30
   15de0:	0077f613          	andi	a2,a5,7
   15de4:	8722                	mv	a4,s0
   15de6:	c221                	beqz	a2,0x15e26
   15de8:	4709                	li	a4,2
   15dea:	00196913          	ori	s2,s2,1
   15dee:	02e98963          	beq	s3,a4,0x15e20
   15df2:	470d                	li	a4,3
   15df4:	02e98063          	beq	s3,a4,0x15e14
   15df8:	8722                	mv	a4,s0
   15dfa:	02099663          	bnez	s3,0x15e26
   15dfe:	00f7f613          	andi	a2,a5,15
   15e02:	4591                	li	a1,4
   15e04:	02b60163          	beq	a2,a1,0x15e26
   15e08:	ffc7b713          	sltiu	a4,a5,-4
   15e0c:	00174713          	xori	a4,a4,1
   15e10:	9722                	add	a4,a4,s0
   15e12:	a811                	j	0x15e26
   15e14:	8722                	mv	a4,s0
   15e16:	00081863          	bnez	a6,0x15e26
   15e1a:	ff87b713          	sltiu	a4,a5,-8
   15e1e:	b7fd                	j	0x15e0c
   15e20:	8722                	mv	a4,s0
   15e22:	fe081ce3          	bnez	a6,0x15e1a
   15e26:	03475613          	srli	a2,a4,0x34
   15e2a:	00164613          	xori	a2,a2,1
   15e2e:	8a05                	andi	a2,a2,1
   15e30:	4585                	li	a1,1
   15e32:	40d586b3          	sub	a3,a1,a3
   15e36:	07400713          	li	a4,116
   15e3a:	0cd74863          	blt	a4,a3,0x15f0a
   15e3e:	03f00593          	li	a1,63
   15e42:	0006871b          	sext.w	a4,a3
   15e46:	04d5ca63          	blt	a1,a3,0x15e9a
   15e4a:	04000693          	li	a3,64
   15e4e:	9e99                	subw	a3,a3,a4
   15e50:	00e7d5b3          	srl	a1,a5,a4
   15e54:	00d41533          	sll	a0,s0,a3
   15e58:	00d797b3          	sll	a5,a5,a3
   15e5c:	8d4d                	or	a0,a0,a1
   15e5e:	00f037b3          	snez	a5,a5
   15e62:	8d5d                	or	a0,a0,a5
   15e64:	00e45733          	srl	a4,s0,a4
   15e68:	00757793          	andi	a5,a0,7
   15e6c:	c7a5                	beqz	a5,0x15ed4
   15e6e:	4789                	li	a5,2
   15e70:	00196913          	ori	s2,s2,1
   15e74:	04f98e63          	beq	s3,a5,0x15ed0
   15e78:	478d                	li	a5,3
   15e7a:	04f98663          	beq	s3,a5,0x15ec6
   15e7e:	04099b63          	bnez	s3,0x15ed4
   15e82:	00f57793          	andi	a5,a0,15
   15e86:	4691                	li	a3,4
   15e88:	04d78663          	beq	a5,a3,0x15ed4
   15e8c:	00450793          	addi	a5,a0,4
   15e90:	00a7b533          	sltu	a0,a5,a0
   15e94:	972a                	add	a4,a4,a0
   15e96:	853e                	mv	a0,a5
   15e98:	a835                	j	0x15ed4
   15e9a:	fc07051b          	addiw	a0,a4,-64
   15e9e:	04000593          	li	a1,64
   15ea2:	00a45533          	srl	a0,s0,a0
   15ea6:	4881                	li	a7,0
   15ea8:	00b68863          	beq	a3,a1,0x15eb8
   15eac:	08000893          	li	a7,128
   15eb0:	40e8873b          	subw	a4,a7,a4
   15eb4:	00e418b3          	sll	a7,s0,a4
   15eb8:	00f8e7b3          	or	a5,a7,a5
   15ebc:	00f037b3          	snez	a5,a5
   15ec0:	8d5d                	or	a0,a0,a5
   15ec2:	4701                	li	a4,0
   15ec4:	b755                	j	0x15e68
   15ec6:	00081763          	bnez	a6,0x15ed4
   15eca:	00850793          	addi	a5,a0,8
   15ece:	b7c9                	j	0x15e90
   15ed0:	fe081de3          	bnez	a6,0x15eca
   15ed4:	00c71793          	slli	a5,a4,0xc
   15ed8:	0007dc63          	bgez	a5,0x15ef0
   15edc:	00196913          	ori	s2,s2,1
   15ee0:	4701                	li	a4,0
   15ee2:	4501                	li	a0,0
   15ee4:	4685                	li	a3,1
   15ee6:	c2060be3          	beqz	a2,0x15b1c
   15eea:	00296913          	ori	s2,s2,2
   15eee:	b13d                	j	0x15b1c
   15ef0:	03d71793          	slli	a5,a4,0x3d
   15ef4:	810d                	srli	a0,a0,0x3
   15ef6:	8d5d                	or	a0,a0,a5
   15ef8:	830d                	srli	a4,a4,0x3
   15efa:	4681                	li	a3,0
   15efc:	c20600e3          	beqz	a2,0x15b1c
   15f00:	00197793          	andi	a5,s2,1
   15f04:	c0078ce3          	beqz	a5,0x15b1c
   15f08:	b7cd                	j	0x15eea
   15f0a:	0087e533          	or	a0,a5,s0
   15f0e:	c11d                	beqz	a0,0x15f34
   15f10:	4789                	li	a5,2
   15f12:	00196913          	ori	s2,s2,1
   15f16:	02f98463          	beq	s3,a5,0x15f3e
   15f1a:	478d                	li	a5,3
   15f1c:	00f98763          	beq	s3,a5,0x15f2a
   15f20:	4795                	li	a5,5
   15f22:	00098763          	beqz	s3,0x15f30
   15f26:	4785                	li	a5,1
   15f28:	a021                	j	0x15f30
   15f2a:	47a5                	li	a5,9
   15f2c:	fe081de3          	bnez	a6,0x15f26
   15f30:	0037d513          	srli	a0,a5,0x3
   15f34:	00296913          	ori	s2,s2,2
   15f38:	4701                	li	a4,0
   15f3a:	4681                	li	a3,0
   15f3c:	b6c5                	j	0x15b1c
   15f3e:	47a5                	li	a5,9
   15f40:	fe0818e3          	bnez	a6,0x15f30
   15f44:	b7cd                	j	0x15f26
   15f46:	66a1                	lui	a3,0x8
   15f48:	4701                	li	a4,0
   15f4a:	4501                	li	a0,0
   15f4c:	16fd                	addi	a3,a3,-1
   15f4e:	b6f9                	j	0x15b1c
   15f50:	4705                	li	a4,1
   15f52:	66a1                	lui	a3,0x8
   15f54:	173e                	slli	a4,a4,0x2f
   15f56:	4501                	li	a0,0
   15f58:	16fd                	addi	a3,a3,-1
   15f5a:	4801                	li	a6,0
   15f5c:	b6c1                	j	0x15b1c
   15f5e:	7179                	addi	sp,sp,-48
   15f60:	f406                	sd	ra,40(sp)
   15f62:	f022                	sd	s0,32(sp)
   15f64:	ec26                	sd	s1,24(sp)
   15f66:	e84a                	sd	s2,16(sp)
   15f68:	e44e                	sd	s3,8(sp)
   15f6a:	e052                	sd	s4,0(sp)
   15f6c:	002024f3          	frrm	s1
   15f70:	52fd                	li	t0,-1
   15f72:	0102d293          	srli	t0,t0,0x10
   15f76:	6fa1                	lui	t6,0x8
   15f78:	0305d313          	srli	t1,a1,0x30
   15f7c:	1ffd                	addi	t6,t6,-1
   15f7e:	0306d893          	srli	a7,a3,0x30
   15f82:	03f5d913          	srli	s2,a1,0x3f
   15f86:	03f6de13          	srli	t3,a3,0x3f
   15f8a:	0055f5b3          	and	a1,a1,t0
   15f8e:	0056f6b3          	and	a3,a3,t0
   15f92:	03d55413          	srli	s0,a0,0x3d
   15f96:	01f37333          	and	t1,t1,t6
   15f9a:	058e                	slli	a1,a1,0x3
   15f9c:	00351f13          	slli	t5,a0,0x3
   15fa0:	068e                	slli	a3,a3,0x3
   15fa2:	03d65513          	srli	a0,a2,0x3d
   15fa6:	01f8f8b3          	and	a7,a7,t6
   15faa:	2481                	sext.w	s1,s1
   15fac:	899a                	mv	s3,t1
   15fae:	8dc1                	or	a1,a1,s0
   15fb0:	8ec9                	or	a3,a3,a0
   15fb2:	00361e93          	slli	t4,a2,0x3
   15fb6:	01f89563          	bne	a7,t6,0x15fc0
   15fba:	01d6e7b3          	or	a5,a3,t4
   15fbe:	e399                	bnez	a5,0x15fc4
   15fc0:	001e4e13          	xori	t3,t3,1
   15fc4:	411307bb          	subw	a5,t1,a7
   15fc8:	6521                	lui	a0,0x8
   15fca:	0007871b          	sext.w	a4,a5
   15fce:	fff50613          	addi	a2,a0,-1 # 0x7fff
   15fd2:	312e1c63          	bne	t3,s2,0x162ea
   15fd6:	0ee05e63          	blez	a4,0x160d2
   15fda:	08089263          	bnez	a7,0x1605e
   15fde:	01d6e733          	or	a4,a3,t4
   15fe2:	ef19                	bnez	a4,0x16000
   15fe4:	70c31063          	bne	t1,a2,0x166e4
   15fe8:	01e5eeb3          	or	t4,a1,t5
   15fec:	720e8d63          	beqz	t4,0x16726
   15ff0:	00d59793          	slli	a5,a1,0xd
   15ff4:	86ae                	mv	a3,a1
   15ff6:	8efa                	mv	t4,t5
   15ff8:	0407c663          	bltz	a5,0x16044
   15ffc:	47c1                	li	a5,16
   15ffe:	aad5                	j	0x161f2
   16000:	fff7871b          	addiw	a4,a5,-1
   16004:	e331                	bnez	a4,0x16048
   16006:	9efa                	add	t4,t4,t5
   16008:	96ae                	add	a3,a3,a1
   1600a:	01eebf33          	sltu	t5,t4,t5
   1600e:	96fa                	add	a3,a3,t5
   16010:	00c69793          	slli	a5,a3,0xc
   16014:	6c07d363          	bgez	a5,0x166da
   16018:	67a1                	lui	a5,0x8
   1601a:	0985                	addi	s3,s3,1
   1601c:	fff78713          	addi	a4,a5,-1 # 0x7fff
   16020:	2ae98063          	beq	s3,a4,0x162c0
   16024:	557d                	li	a0,-1
   16026:	154e                	slli	a0,a0,0x33
   16028:	157d                	addi	a0,a0,-1
   1602a:	8d75                	and	a0,a0,a3
   1602c:	001ed593          	srli	a1,t4,0x1
   16030:	001efe93          	andi	t4,t4,1
   16034:	03f51693          	slli	a3,a0,0x3f
   16038:	01d5eeb3          	or	t4,a1,t4
   1603c:	01d6eeb3          	or	t4,a3,t4
   16040:	00155693          	srli	a3,a0,0x1
   16044:	4701                	li	a4,0
   16046:	a425                	j	0x1626e
   16048:	02c31063          	bne	t1,a2,0x16068
   1604c:	01e5eeb3          	or	t4,a1,t5
   16050:	6c0e8b63          	beqz	t4,0x16726
   16054:	00d59793          	slli	a5,a1,0xd
   16058:	86ae                	mv	a3,a1
   1605a:	8efa                	mv	t4,t5
   1605c:	a851                	j	0x160f0
   1605e:	fec307e3          	beq	t1,a2,0x1604c
   16062:	4785                	li	a5,1
   16064:	17ce                	slli	a5,a5,0x33
   16066:	8edd                	or	a3,a3,a5
   16068:	07400793          	li	a5,116
   1606c:	04e7ce63          	blt	a5,a4,0x160c8
   16070:	03f00793          	li	a5,63
   16074:	02e7c363          	blt	a5,a4,0x1609a
   16078:	04000413          	li	s0,64
   1607c:	9c19                	subw	s0,s0,a4
   1607e:	008697b3          	sll	a5,a3,s0
   16082:	00eed633          	srl	a2,t4,a4
   16086:	008e9eb3          	sll	t4,t4,s0
   1608a:	8fd1                	or	a5,a5,a2
   1608c:	01d03eb3          	snez	t4,t4
   16090:	01d7eeb3          	or	t4,a5,t4
   16094:	00e6d6b3          	srl	a3,a3,a4
   16098:	b7bd                	j	0x16006
   1609a:	fc07079b          	addiw	a5,a4,-64
   1609e:	04000613          	li	a2,64
   160a2:	00f6d7b3          	srl	a5,a3,a5
   160a6:	4401                	li	s0,0
   160a8:	00c70863          	beq	a4,a2,0x160b8
   160ac:	08000413          	li	s0,128
   160b0:	40e4073b          	subw	a4,s0,a4
   160b4:	00e69433          	sll	s0,a3,a4
   160b8:	01d46eb3          	or	t4,s0,t4
   160bc:	01d03eb3          	snez	t4,t4
   160c0:	01d7eeb3          	or	t4,a5,t4
   160c4:	4681                	li	a3,0
   160c6:	b781                	j	0x16006
   160c8:	01d6eeb3          	or	t4,a3,t4
   160cc:	01d03eb3          	snez	t4,t4
   160d0:	bfd5                	j	0x160c4
   160d2:	cf79                	beqz	a4,0x161b0
   160d4:	08031263          	bnez	t1,0x16158
   160d8:	01e5e533          	or	a0,a1,t5
   160dc:	ed11                	bnez	a0,0x160f8
   160de:	89c6                	mv	s3,a7
   160e0:	5ec89d63          	bne	a7,a2,0x166da
   160e4:	01d6e7b3          	or	a5,a3,t4
   160e8:	62078763          	beqz	a5,0x16716
   160ec:	00d69793          	slli	a5,a3,0xd
   160f0:	4701                	li	a4,0
   160f2:	1607ce63          	bltz	a5,0x1626e
   160f6:	b719                	j	0x15ffc
   160f8:	557d                	li	a0,-1
   160fa:	00a71a63          	bne	a4,a0,0x1610e
   160fe:	9f76                	add	t5,t5,t4
   16100:	96ae                	add	a3,a3,a1
   16102:	01df3eb3          	sltu	t4,t5,t4
   16106:	96f6                	add	a3,a3,t4
   16108:	8efa                	mv	t4,t5
   1610a:	89c6                	mv	s3,a7
   1610c:	b711                	j	0x16010
   1610e:	04c88763          	beq	a7,a2,0x1615c
   16112:	fff7c793          	not	a5,a5
   16116:	0007881b          	sext.w	a6,a5
   1611a:	07400793          	li	a5,116
   1611e:	0907c463          	blt	a5,a6,0x161a6
   16122:	03f00793          	li	a5,63
   16126:	0507c963          	blt	a5,a6,0x16178
   1612a:	04000513          	li	a0,64
   1612e:	4105053b          	subw	a0,a0,a6
   16132:	010f57b3          	srl	a5,t5,a6
   16136:	00a59433          	sll	s0,a1,a0
   1613a:	00af1f33          	sll	t5,t5,a0
   1613e:	8c5d                	or	s0,s0,a5
   16140:	01e03f33          	snez	t5,t5
   16144:	01e46f33          	or	t5,s0,t5
   16148:	0105d833          	srl	a6,a1,a6
   1614c:	9f76                	add	t5,t5,t4
   1614e:	9836                	add	a6,a6,a3
   16150:	01df36b3          	sltu	a3,t5,t4
   16154:	96c2                	add	a3,a3,a6
   16156:	bf4d                	j	0x16108
   16158:	00c89a63          	bne	a7,a2,0x1616c
   1615c:	01d6e7b3          	or	a5,a3,t4
   16160:	5a078f63          	beqz	a5,0x1671e
   16164:	00d69793          	slli	a5,a3,0xd
   16168:	89c6                	mv	s3,a7
   1616a:	b759                	j	0x160f0
   1616c:	40f0083b          	negw	a6,a5
   16170:	4785                	li	a5,1
   16172:	17ce                	slli	a5,a5,0x33
   16174:	8ddd                	or	a1,a1,a5
   16176:	b755                	j	0x1611a
   16178:	fc08041b          	addiw	s0,a6,-64
   1617c:	04000793          	li	a5,64
   16180:	0085d433          	srl	s0,a1,s0
   16184:	4501                	li	a0,0
   16186:	00f80863          	beq	a6,a5,0x16196
   1618a:	08000513          	li	a0,128
   1618e:	4105083b          	subw	a6,a0,a6
   16192:	01059533          	sll	a0,a1,a6
   16196:	01e56f33          	or	t5,a0,t5
   1619a:	01e03f33          	snez	t5,t5
   1619e:	01e46f33          	or	t5,s0,t5
   161a2:	4801                	li	a6,0
   161a4:	b765                	j	0x1614c
   161a6:	01e5e433          	or	s0,a1,t5
   161aa:	00803f33          	snez	t5,s0
   161ae:	bfd5                	j	0x161a2
   161b0:	00130e13          	addi	t3,t1,1
   161b4:	ffe50793          	addi	a5,a0,-2
   161b8:	00fe7533          	and	a0,t3,a5
   161bc:	e559                	bnez	a0,0x1624a
   161be:	01e5e533          	or	a0,a1,t5
   161c2:	04031063          	bnez	t1,0x16202
   161c6:	50050c63          	beqz	a0,0x166de
   161ca:	01d6e7b3          	or	a5,a3,t4
   161ce:	2c078963          	beqz	a5,0x164a0
   161d2:	9efa                	add	t4,t4,t5
   161d4:	96ae                	add	a3,a3,a1
   161d6:	01eeb433          	sltu	s0,t4,t5
   161da:	008685b3          	add	a1,a3,s0
   161de:	00c59793          	slli	a5,a1,0xc
   161e2:	4e07df63          	bgez	a5,0x166e0
   161e6:	56fd                	li	a3,-1
   161e8:	16ce                	slli	a3,a3,0x33
   161ea:	16fd                	addi	a3,a3,-1
   161ec:	8eed                	and	a3,a3,a1
   161ee:	4781                	li	a5,0
   161f0:	4985                	li	s3,1
   161f2:	007ef613          	andi	a2,t4,7
   161f6:	ee59                	bnez	a2,0x16294
   161f8:	38070663          	beqz	a4,0x16584
   161fc:	0017f713          	andi	a4,a5,1
   16200:	a3a1                	j	0x16748
   16202:	02c31f63          	bne	t1,a2,0x16240
   16206:	58050163          	beqz	a0,0x16788
   1620a:	0325d793          	srli	a5,a1,0x32
   1620e:	8b85                	andi	a5,a5,1
   16210:	0017b793          	seqz	a5,a5
   16214:	0792                	slli	a5,a5,0x4
   16216:	00689c63          	bne	a7,t1,0x1622e
   1621a:	01d6e633          	or	a2,a3,t4
   1621e:	56060263          	beqz	a2,0x16782
   16222:	00d69613          	slli	a2,a3,0xd
   16226:	00064363          	bltz	a2,0x1622c
   1622a:	47c1                	li	a5,16
   1622c:	c519                	beqz	a0,0x1623a
   1622e:	01d6e6b3          	or	a3,a3,t4
   16232:	34069363          	bnez	a3,0x16578
   16236:	86ae                	mv	a3,a1
   16238:	8efa                	mv	t4,t5
   1623a:	69a1                	lui	s3,0x8
   1623c:	19fd                	addi	s3,s3,-1
   1623e:	bf55                	j	0x161f2
   16240:	4781                	li	a5,0
   16242:	fec895e3          	bne	a7,a2,0x1622c
   16246:	4781                	li	a5,0
   16248:	bfc9                	j	0x1621a
   1624a:	02ce0463          	beq	t3,a2,0x16272
   1624e:	9efa                	add	t4,t4,t5
   16250:	00d58433          	add	s0,a1,a3
   16254:	01eeb6b3          	sltu	a3,t4,t5
   16258:	00d40f33          	add	t5,s0,a3
   1625c:	03ff1693          	slli	a3,t5,0x3f
   16260:	001ede93          	srli	t4,t4,0x1
   16264:	01d6eeb3          	or	t4,a3,t4
   16268:	89f2                	mv	s3,t3
   1626a:	001f5693          	srli	a3,t5,0x1
   1626e:	4781                	li	a5,0
   16270:	b749                	j	0x161f2
   16272:	c491                	beqz	s1,0x1627e
   16274:	468d                	li	a3,3
   16276:	00d49663          	bne	s1,a3,0x16282
   1627a:	00091963          	bnez	s2,0x1628c
   1627e:	89f2                	mv	s3,t3
   16280:	a0b1                	j	0x162cc
   16282:	4689                	li	a3,2
   16284:	00d49463          	bne	s1,a3,0x1628c
   16288:	fe091be3          	bnez	s2,0x1627e
   1628c:	56fd                	li	a3,-1
   1628e:	5efd                	li	t4,-1
   16290:	89be                	mv	s3,a5
   16292:	4795                	li	a5,5
   16294:	4609                	li	a2,2
   16296:	0017e793          	ori	a5,a5,1
   1629a:	4ac48563          	beq	s1,a2,0x16744
   1629e:	460d                	li	a2,3
   162a0:	48c48d63          	beq	s1,a2,0x1673a
   162a4:	4a049263          	bnez	s1,0x16748
   162a8:	00fef613          	andi	a2,t4,15
   162ac:	4591                	li	a1,4
   162ae:	48b60d63          	beq	a2,a1,0x16748
   162b2:	004e8593          	addi	a1,t4,4
   162b6:	01d5beb3          	sltu	t4,a1,t4
   162ba:	96f6                	add	a3,a3,t4
   162bc:	8eae                	mv	t4,a1
   162be:	a169                	j	0x16748
   162c0:	c491                	beqz	s1,0x162cc
   162c2:	470d                	li	a4,3
   162c4:	00e49863          	bne	s1,a4,0x162d4
   162c8:	00091b63          	bnez	s2,0x162de
   162cc:	4681                	li	a3,0
   162ce:	4e81                	li	t4,0
   162d0:	4795                	li	a5,5
   162d2:	ac4d                	j	0x16584
   162d4:	4709                	li	a4,2
   162d6:	00e49463          	bne	s1,a4,0x162de
   162da:	fe0919e3          	bnez	s2,0x162cc
   162de:	56fd                	li	a3,-1
   162e0:	5efd                	li	t4,-1
   162e2:	ffe78993          	addi	s3,a5,-2
   162e6:	4701                	li	a4,0
   162e8:	b76d                	j	0x16292
   162ea:	0ae05963          	blez	a4,0x1639c
   162ee:	06089563          	bnez	a7,0x16358
   162f2:	01d6e733          	or	a4,a3,t4
   162f6:	ce0707e3          	beqz	a4,0x15fe4
   162fa:	fff7871b          	addiw	a4,a5,-1
   162fe:	e315                	bnez	a4,0x16322
   16300:	41df0eb3          	sub	t4,t5,t4
   16304:	40d586b3          	sub	a3,a1,a3
   16308:	01df3f33          	sltu	t5,t5,t4
   1630c:	41e686b3          	sub	a3,a3,t5
   16310:	00c69793          	slli	a5,a3,0xc
   16314:	3c07d363          	bgez	a5,0x166da
   16318:	547d                	li	s0,-1
   1631a:	8035                	srli	s0,s0,0xd
   1631c:	8c75                	and	s0,s0,a3
   1631e:	8a76                	mv	s4,t4
   16320:	acfd                	j	0x1661e
   16322:	d2c305e3          	beq	t1,a2,0x1604c
   16326:	07400793          	li	a5,116
   1632a:	06e7c463          	blt	a5,a4,0x16392
   1632e:	03f00793          	li	a5,63
   16332:	02e7c963          	blt	a5,a4,0x16364
   16336:	04000413          	li	s0,64
   1633a:	9c19                	subw	s0,s0,a4
   1633c:	008697b3          	sll	a5,a3,s0
   16340:	00eed633          	srl	a2,t4,a4
   16344:	008e9eb3          	sll	t4,t4,s0
   16348:	8fd1                	or	a5,a5,a2
   1634a:	01d03eb3          	snez	t4,t4
   1634e:	01d7eeb3          	or	t4,a5,t4
   16352:	00e6d6b3          	srl	a3,a3,a4
   16356:	b76d                	j	0x16300
   16358:	cec30ae3          	beq	t1,a2,0x1604c
   1635c:	4785                	li	a5,1
   1635e:	17ce                	slli	a5,a5,0x33
   16360:	8edd                	or	a3,a3,a5
   16362:	b7d1                	j	0x16326
   16364:	fc07079b          	addiw	a5,a4,-64
   16368:	04000613          	li	a2,64
   1636c:	00f6d7b3          	srl	a5,a3,a5
   16370:	4401                	li	s0,0
   16372:	00c70863          	beq	a4,a2,0x16382
   16376:	08000413          	li	s0,128
   1637a:	40e4073b          	subw	a4,s0,a4
   1637e:	00e69433          	sll	s0,a3,a4
   16382:	01d46eb3          	or	t4,s0,t4
   16386:	01d03eb3          	snez	t4,t4
   1638a:	01d7eeb3          	or	t4,a5,t4
   1638e:	4681                	li	a3,0
   16390:	bf85                	j	0x16300
   16392:	01d6eeb3          	or	t4,a3,t4
   16396:	01d03eb3          	snez	t4,t4
   1639a:	bfd5                	j	0x1638e
   1639c:	cb71                	beqz	a4,0x16470
   1639e:	08031563          	bnez	t1,0x16428
   163a2:	01e5e533          	or	a0,a1,t5
   163a6:	ed01                	bnez	a0,0x163be
   163a8:	34c89163          	bne	a7,a2,0x166ea
   163ac:	01d6e7b3          	or	a5,a3,t4
   163b0:	36078d63          	beqz	a5,0x1672a
   163b4:	00d69793          	slli	a5,a3,0xd
   163b8:	89c6                	mv	s3,a7
   163ba:	8972                	mv	s2,t3
   163bc:	bb15                	j	0x160f0
   163be:	557d                	li	a0,-1
   163c0:	00a71d63          	bne	a4,a0,0x163da
   163c4:	41ee8f33          	sub	t5,t4,t5
   163c8:	8e8d                	sub	a3,a3,a1
   163ca:	01eebeb3          	sltu	t4,t4,t5
   163ce:	41d686b3          	sub	a3,a3,t4
   163d2:	8efa                	mv	t4,t5
   163d4:	89c6                	mv	s3,a7
   163d6:	8972                	mv	s2,t3
   163d8:	bf25                	j	0x16310
   163da:	fcc889e3          	beq	a7,a2,0x163ac
   163de:	fff7c793          	not	a5,a5
   163e2:	2781                	sext.w	a5,a5
   163e4:	07400713          	li	a4,116
   163e8:	06f74f63          	blt	a4,a5,0x16466
   163ec:	03f00713          	li	a4,63
   163f0:	04f74463          	blt	a4,a5,0x16438
   163f4:	04000513          	li	a0,64
   163f8:	9d1d                	subw	a0,a0,a5
   163fa:	00ff5833          	srl	a6,t5,a5
   163fe:	00a59433          	sll	s0,a1,a0
   16402:	00af1f33          	sll	t5,t5,a0
   16406:	01046433          	or	s0,s0,a6
   1640a:	01e03f33          	snez	t5,t5
   1640e:	01e46f33          	or	t5,s0,t5
   16412:	00f5d7b3          	srl	a5,a1,a5
   16416:	41ee8f33          	sub	t5,t4,t5
   1641a:	40f687b3          	sub	a5,a3,a5
   1641e:	01eeb6b3          	sltu	a3,t4,t5
   16422:	40d786b3          	sub	a3,a5,a3
   16426:	b775                	j	0x163d2
   16428:	f8c882e3          	beq	a7,a2,0x163ac
   1642c:	4705                	li	a4,1
   1642e:	174e                	slli	a4,a4,0x33
   16430:	40f007bb          	negw	a5,a5
   16434:	8dd9                	or	a1,a1,a4
   16436:	b77d                	j	0x163e4
   16438:	fc07841b          	addiw	s0,a5,-64
   1643c:	04000713          	li	a4,64
   16440:	0085d433          	srl	s0,a1,s0
   16444:	4501                	li	a0,0
   16446:	00e78863          	beq	a5,a4,0x16456
   1644a:	08000513          	li	a0,128
   1644e:	40f507bb          	subw	a5,a0,a5
   16452:	00f59533          	sll	a0,a1,a5
   16456:	01e56f33          	or	t5,a0,t5
   1645a:	01e03f33          	snez	t5,t5
   1645e:	01e46f33          	or	t5,s0,t5
   16462:	4781                	li	a5,0
   16464:	bf4d                	j	0x16416
   16466:	01e5e433          	or	s0,a1,t5
   1646a:	00803f33          	snez	t5,s0
   1646e:	bfd5                	j	0x16462
   16470:	00130813          	addi	a6,t1,1
   16474:	ffe50793          	addi	a5,a0,-2
   16478:	00f877b3          	and	a5,a6,a5
   1647c:	16079e63          	bnez	a5,0x165f8
   16480:	01e5e833          	or	a6,a1,t5
   16484:	01d6e533          	or	a0,a3,t4
   16488:	0a031263          	bnez	t1,0x1652c
   1648c:	06081063          	bnez	a6,0x164ec
   16490:	26051063          	bnez	a0,0x166f0
   16494:	ffe48913          	addi	s2,s1,-2
   16498:	00193913          	seqz	s2,s2
   1649c:	4581                	li	a1,0
   1649e:	4f01                	li	t5,0
   164a0:	00bf6eb3          	or	t4,t5,a1
   164a4:	280e8863          	beqz	t4,0x16734
   164a8:	001f1613          	slli	a2,t5,0x1
   164ac:	03ff5793          	srli	a5,t5,0x3f
   164b0:	00159713          	slli	a4,a1,0x1
   164b4:	00767693          	andi	a3,a2,7
   164b8:	973e                	add	a4,a4,a5
   164ba:	4781                	li	a5,0
   164bc:	c285                	beqz	a3,0x164dc
   164be:	4789                	li	a5,2
   164c0:	24f48763          	beq	s1,a5,0x1670e
   164c4:	478d                	li	a5,3
   164c6:	22f48b63          	beq	s1,a5,0x166fc
   164ca:	4785                	li	a5,1
   164cc:	e881                	bnez	s1,0x164dc
   164ce:	00f67693          	andi	a3,a2,15
   164d2:	4511                	li	a0,4
   164d4:	ffc63613          	sltiu	a2,a2,-4
   164d8:	22a69763          	bne	a3,a0,0x16706
   164dc:	9351                	srli	a4,a4,0x34
   164de:	00174713          	xori	a4,a4,1
   164e2:	8b05                	andi	a4,a4,1
   164e4:	86ae                	mv	a3,a1
   164e6:	8efa                	mv	t4,t5
   164e8:	4981                	li	s3,0
   164ea:	b321                	j	0x161f2
   164ec:	d955                	beqz	a0,0x164a0
   164ee:	41df0733          	sub	a4,t5,t4
   164f2:	00ef3633          	sltu	a2,t5,a4
   164f6:	40d587b3          	sub	a5,a1,a3
   164fa:	8f91                	sub	a5,a5,a2
   164fc:	00c79613          	slli	a2,a5,0xc
   16500:	00065c63          	bgez	a2,0x16518
   16504:	41ee8f33          	sub	t5,t4,t5
   16508:	40b68433          	sub	s0,a3,a1
   1650c:	01eeb6b3          	sltu	a3,t4,t5
   16510:	40d405b3          	sub	a1,s0,a3
   16514:	8972                	mv	s2,t3
   16516:	b769                	j	0x164a0
   16518:	00f76f33          	or	t5,a4,a5
   1651c:	1c0f1d63          	bnez	t5,0x166f6
   16520:	ffe48913          	addi	s2,s1,-2
   16524:	00193913          	seqz	s2,s2
   16528:	4581                	li	a1,0
   1652a:	bf9d                	j	0x164a0
   1652c:	02c31f63          	bne	t1,a2,0x1656a
   16530:	24080563          	beqz	a6,0x1677a
   16534:	0325d793          	srli	a5,a1,0x32
   16538:	8b85                	andi	a5,a5,1
   1653a:	0017b793          	seqz	a5,a5
   1653e:	0792                	slli	a5,a5,0x4
   16540:	02689a63          	bne	a7,t1,0x16574
   16544:	c511                	beqz	a0,0x16550
   16546:	00d69613          	slli	a2,a3,0xd
   1654a:	00064363          	bltz	a2,0x16550
   1654e:	47c1                	li	a5,16
   16550:	02081263          	bnez	a6,0x16574
   16554:	8972                	mv	s2,t3
   16556:	ce0512e3          	bnez	a0,0x1623a
   1655a:	4685                	li	a3,1
   1655c:	69a1                	lui	s3,0x8
   1655e:	4e81                	li	t4,0
   16560:	4901                	li	s2,0
   16562:	16ca                	slli	a3,a3,0x32
   16564:	19fd                	addi	s3,s3,-1
   16566:	47c1                	li	a5,16
   16568:	a831                	j	0x16584
   1656a:	4781                	li	a5,0
   1656c:	fec892e3          	bne	a7,a2,0x16550
   16570:	4781                	li	a5,0
   16572:	bfc9                	j	0x16544
   16574:	cc0501e3          	beqz	a0,0x16236
   16578:	4685                	li	a3,1
   1657a:	69a1                	lui	s3,0x8
   1657c:	4901                	li	s2,0
   1657e:	16ca                	slli	a3,a3,0x32
   16580:	4e81                	li	t4,0
   16582:	19fd                	addi	s3,s3,-1
   16584:	00c69713          	slli	a4,a3,0xc
   16588:	00075c63          	bgez	a4,0x165a0
   1658c:	6721                	lui	a4,0x8
   1658e:	0985                	addi	s3,s3,1
   16590:	fff70613          	addi	a2,a4,-1 # 0x7fff
   16594:	1ac98f63          	beq	s3,a2,0x16752
   16598:	577d                	li	a4,-1
   1659a:	174e                	slli	a4,a4,0x33
   1659c:	177d                	addi	a4,a4,-1
   1659e:	8ef9                	and	a3,a3,a4
   165a0:	6721                	lui	a4,0x8
   165a2:	03d69513          	slli	a0,a3,0x3d
   165a6:	003ede93          	srli	t4,t4,0x3
   165aa:	177d                	addi	a4,a4,-1
   165ac:	01d56533          	or	a0,a0,t4
   165b0:	828d                	srli	a3,a3,0x3
   165b2:	00e99963          	bne	s3,a4,0x165c4
   165b6:	8d55                	or	a0,a0,a3
   165b8:	4681                	li	a3,0
   165ba:	c509                	beqz	a0,0x165c4
   165bc:	4685                	li	a3,1
   165be:	16be                	slli	a3,a3,0x2f
   165c0:	4501                	li	a0,0
   165c2:	4901                	li	s2,0
   165c4:	65a1                	lui	a1,0x8
   165c6:	577d                	li	a4,-1
   165c8:	15fd                	addi	a1,a1,-1
   165ca:	01075613          	srli	a2,a4,0x10
   165ce:	00b9f5b3          	and	a1,s3,a1
   165d2:	15c2                	slli	a1,a1,0x30
   165d4:	8ef1                	and	a3,a3,a2
   165d6:	8dd5                	or	a1,a1,a3
   165d8:	8305                	srli	a4,a4,0x1
   165da:	197e                	slli	s2,s2,0x3f
   165dc:	8df9                	and	a1,a1,a4
   165de:	0125e5b3          	or	a1,a1,s2
   165e2:	c399                	beqz	a5,0x165e8
   165e4:	0017a073          	csrs	fflags,a5
   165e8:	70a2                	ld	ra,40(sp)
   165ea:	7402                	ld	s0,32(sp)
   165ec:	64e2                	ld	s1,24(sp)
   165ee:	6942                	ld	s2,16(sp)
   165f0:	69a2                	ld	s3,8(sp)
   165f2:	6a02                	ld	s4,0(sp)
   165f4:	6145                	addi	sp,sp,48
   165f6:	8082                	ret
   165f8:	41df0a33          	sub	s4,t5,t4
   165fc:	014f37b3          	sltu	a5,t5,s4
   16600:	40d58433          	sub	s0,a1,a3
   16604:	8c1d                	sub	s0,s0,a5
   16606:	00c41793          	slli	a5,s0,0xc
   1660a:	0607dc63          	bgez	a5,0x16682
   1660e:	41ee8a33          	sub	s4,t4,t5
   16612:	40b68433          	sub	s0,a3,a1
   16616:	014eb6b3          	sltu	a3,t4,s4
   1661a:	8c15                	sub	s0,s0,a3
   1661c:	8972                	mv	s2,t3
   1661e:	c43d                	beqz	s0,0x1668c
   16620:	8522                	mv	a0,s0
   16622:	3ea000ef          	jal	ra,0x16a0c
   16626:	2501                	sext.w	a0,a0
   16628:	ff45061b          	addiw	a2,a0,-12
   1662c:	03f00793          	li	a5,63
   16630:	8f32                	mv	t5,a2
   16632:	06c7c363          	blt	a5,a2,0x16698
   16636:	04000693          	li	a3,64
   1663a:	9e91                	subw	a3,a3,a2
   1663c:	00c41433          	sll	s0,s0,a2
   16640:	00da56b3          	srl	a3,s4,a3
   16644:	8c55                	or	s0,s0,a3
   16646:	00ca1eb3          	sll	t4,s4,a2
   1664a:	09364263          	blt	a2,s3,0x166ce
   1664e:	413f09bb          	subw	s3,t5,s3
   16652:	0019869b          	addiw	a3,s3,1
   16656:	03f00713          	li	a4,63
   1665a:	04d74563          	blt	a4,a3,0x166a4
   1665e:	04000613          	li	a2,64
   16662:	9e15                	subw	a2,a2,a3
   16664:	00c41f33          	sll	t5,s0,a2
   16668:	00ded533          	srl	a0,t4,a3
   1666c:	00ce9633          	sll	a2,t4,a2
   16670:	00af6f33          	or	t5,t5,a0
   16674:	00c03633          	snez	a2,a2
   16678:	00cf6f33          	or	t5,t5,a2
   1667c:	00d455b3          	srl	a1,s0,a3
   16680:	b505                	j	0x164a0
   16682:	008a6f33          	or	t5,s4,s0
   16686:	f80f1ce3          	bnez	t5,0x1661e
   1668a:	bd59                	j	0x16520
   1668c:	8552                	mv	a0,s4
   1668e:	37e000ef          	jal	ra,0x16a0c
   16692:	0405051b          	addiw	a0,a0,64
   16696:	bf49                	j	0x16628
   16698:	fb45041b          	addiw	s0,a0,-76
   1669c:	008a1433          	sll	s0,s4,s0
   166a0:	4e81                	li	t4,0
   166a2:	b765                	j	0x1664a
   166a4:	fc198f1b          	addiw	t5,s3,-63
   166a8:	04000713          	li	a4,64
   166ac:	01e45f33          	srl	t5,s0,t5
   166b0:	4601                	li	a2,0
   166b2:	00e68763          	beq	a3,a4,0x166c0
   166b6:	08000613          	li	a2,128
   166ba:	9e15                	subw	a2,a2,a3
   166bc:	00c41633          	sll	a2,s0,a2
   166c0:	00cee633          	or	a2,t4,a2
   166c4:	00c03633          	snez	a2,a2
   166c8:	00cf6f33          	or	t5,t5,a2
   166cc:	bdb1                	j	0x16528
   166ce:	56fd                	li	a3,-1
   166d0:	16ce                	slli	a3,a3,0x33
   166d2:	16fd                	addi	a3,a3,-1
   166d4:	40c989b3          	sub	s3,s3,a2
   166d8:	8ee1                	and	a3,a3,s0
   166da:	960995e3          	bnez	s3,0x16044
   166de:	85b6                	mv	a1,a3
   166e0:	8f76                	mv	t5,t4
   166e2:	bb7d                	j	0x164a0
   166e4:	86ae                	mv	a3,a1
   166e6:	8efa                	mv	t4,t5
   166e8:	bfcd                	j	0x166da
   166ea:	89c6                	mv	s3,a7
   166ec:	8972                	mv	s2,t3
   166ee:	b7f5                	j	0x166da
   166f0:	85b6                	mv	a1,a3
   166f2:	8f76                	mv	t5,t4
   166f4:	b505                	j	0x16514
   166f6:	85be                	mv	a1,a5
   166f8:	8f3a                	mv	t5,a4
   166fa:	b35d                	j	0x164a0
   166fc:	4785                	li	a5,1
   166fe:	dc091fe3          	bnez	s2,0x164dc
   16702:	ff863613          	sltiu	a2,a2,-8
   16706:	00164613          	xori	a2,a2,1
   1670a:	9732                	add	a4,a4,a2
   1670c:	bbc1                	j	0x164dc
   1670e:	4785                	li	a5,1
   16710:	dc0906e3          	beqz	s2,0x164dc
   16714:	b7fd                	j	0x16702
   16716:	4681                	li	a3,0
   16718:	4e81                	li	t4,0
   1671a:	4781                	li	a5,0
   1671c:	b5a5                	j	0x16584
   1671e:	4681                	li	a3,0
   16720:	4e81                	li	t4,0
   16722:	89c6                	mv	s3,a7
   16724:	bfdd                	j	0x1671a
   16726:	4681                	li	a3,0
   16728:	bfcd                	j	0x1671a
   1672a:	4681                	li	a3,0
   1672c:	4e81                	li	t4,0
   1672e:	89c6                	mv	s3,a7
   16730:	8972                	mv	s2,t3
   16732:	b7e5                	j	0x1671a
   16734:	4681                	li	a3,0
   16736:	4981                	li	s3,0
   16738:	b7cd                	j	0x1671a
   1673a:	00091763          	bnez	s2,0x16748
   1673e:	008e8593          	addi	a1,t4,8
   16742:	be95                	j	0x162b6
   16744:	fe091de3          	bnez	s2,0x1673e
   16748:	e2070ee3          	beqz	a4,0x16584
   1674c:	0027e793          	ori	a5,a5,2
   16750:	bd15                	j	0x16584
   16752:	4e81                	li	t4,0
   16754:	cc99                	beqz	s1,0x16772
   16756:	468d                	li	a3,3
   16758:	00d49863          	bne	s1,a3,0x16768
   1675c:	00090b63          	beqz	s2,0x16772
   16760:	5efd                	li	t4,-1
   16762:	ffe70993          	addi	s3,a4,-2 # 0x7ffe
   16766:	a031                	j	0x16772
   16768:	4689                	li	a3,2
   1676a:	fed49be3          	bne	s1,a3,0x16760
   1676e:	fe0909e3          	beqz	s2,0x16760
   16772:	0057e793          	ori	a5,a5,5
   16776:	86f6                	mv	a3,t4
   16778:	b525                	j	0x165a0
   1677a:	4781                	li	a5,0
   1677c:	dc689ce3          	bne	a7,t1,0x16554
   16780:	bbc5                	j	0x16570
   16782:	aa050ce3          	beqz	a0,0x1623a
   16786:	bc45                	j	0x16236
   16788:	ae6893e3          	bne	a7,t1,0x1626e
   1678c:	bc6d                	j	0x16246
   1678e:	002027f3          	frrm	a5
   16792:	57fd                	li	a5,-1
   16794:	00159693          	slli	a3,a1,0x1
   16798:	6611                	lui	a2,0x4
   1679a:	83c1                	srli	a5,a5,0x10
   1679c:	92c5                	srli	a3,a3,0x31
   1679e:	ffe60713          	addi	a4,a2,-2 # 0x3ffe
   167a2:	8fed                	and	a5,a5,a1
   167a4:	91fd                	srli	a1,a1,0x3f
   167a6:	00d74863          	blt	a4,a3,0x167b6
   167aa:	e6a5                	bnez	a3,0x16812
   167ac:	8fc9                	or	a5,a5,a0
   167ae:	4701                	li	a4,0
   167b0:	efb9                	bnez	a5,0x1680e
   167b2:	853a                	mv	a0,a4
   167b4:	8082                	ret
   167b6:	01d60713          	addi	a4,a2,29
   167ba:	02d75363          	bge	a4,a3,0x167e0
   167be:	80000737          	lui	a4,0x80000
   167c2:	fff74713          	not	a4,a4
   167c6:	9f2d                	addw	a4,a4,a1
   167c8:	c5b9                	beqz	a1,0x16816
   167ca:	01e60593          	addi	a1,a2,30
   167ce:	4641                	li	a2,16
   167d0:	04b69463          	bne	a3,a1,0x16818
   167d4:	0117d693          	srli	a3,a5,0x11
   167d8:	e2a1                	bnez	a3,0x16818
   167da:	17be                	slli	a5,a5,0x2f
   167dc:	8fc9                	or	a5,a5,a0
   167de:	bfc9                	j	0x167b0
   167e0:	4705                	li	a4,1
   167e2:	1742                	slli	a4,a4,0x30
   167e4:	8fd9                	or	a5,a5,a4
   167e6:	7771                	lui	a4,0xffffc
   167e8:	2681                	sext.w	a3,a3
   167ea:	2745                	addiw	a4,a4,17
   167ec:	9f35                	addw	a4,a4,a3
   167ee:	00e79733          	sll	a4,a5,a4
   167f2:	8d59                	or	a0,a0,a4
   167f4:	6711                	lui	a4,0x4
   167f6:	02f7071b          	addiw	a4,a4,47
   167fa:	40d706bb          	subw	a3,a4,a3
   167fe:	00d7d7b3          	srl	a5,a5,a3
   16802:	0007871b          	sext.w	a4,a5
   16806:	c199                	beqz	a1,0x1680c
   16808:	40e0073b          	negw	a4,a4
   1680c:	d15d                	beqz	a0,0x167b2
   1680e:	4605                	li	a2,1
   16810:	a021                	j	0x16818
   16812:	4701                	li	a4,0
   16814:	bfed                	j	0x1680e
   16816:	4641                	li	a2,16
   16818:	00162073          	csrs	fflags,a2
   1681c:	bf59                	j	0x167b2
   1681e:	002027f3          	frrm	a5
   16822:	57fd                	li	a5,-1
   16824:	00159713          	slli	a4,a1,0x1
   16828:	6691                	lui	a3,0x4
   1682a:	83c1                	srli	a5,a5,0x10
   1682c:	9345                	srli	a4,a4,0x31
   1682e:	ffe68613          	addi	a2,a3,-2 # 0x3ffe
   16832:	8fed                	and	a5,a5,a1
   16834:	91fd                	srli	a1,a1,0x3f
   16836:	00e64763          	blt	a2,a4,0x16844
   1683a:	e321                	bnez	a4,0x1687a
   1683c:	8fc9                	or	a5,a5,a0
   1683e:	ef95                	bnez	a5,0x1687a
   16840:	853a                	mv	a0,a4
   16842:	8082                	ret
   16844:	ed95                	bnez	a1,0x16880
   16846:	06f9                	addi	a3,a3,30
   16848:	02e6ce63          	blt	a3,a4,0x16884
   1684c:	4685                	li	a3,1
   1684e:	16c2                	slli	a3,a3,0x30
   16850:	8fd5                	or	a5,a5,a3
   16852:	7671                	lui	a2,0xffffc
   16854:	0007069b          	sext.w	a3,a4
   16858:	6711                	lui	a4,0x4
   1685a:	02f7071b          	addiw	a4,a4,47
   1685e:	2645                	addiw	a2,a2,17
   16860:	9f15                	subw	a4,a4,a3
   16862:	9eb1                	addw	a3,a3,a2
   16864:	00e7d733          	srl	a4,a5,a4
   16868:	00d797b3          	sll	a5,a5,a3
   1686c:	8fc9                	or	a5,a5,a0
   1686e:	2701                	sext.w	a4,a4
   16870:	dbe1                	beqz	a5,0x16840
   16872:	4785                	li	a5,1
   16874:	0017a073          	csrs	fflags,a5
   16878:	b7e1                	j	0x16840
   1687a:	4785                	li	a5,1
   1687c:	4701                	li	a4,0
   1687e:	bfdd                	j	0x16874
   16880:	47c1                	li	a5,16
   16882:	bfed                	j	0x1687c
   16884:	47c1                	li	a5,16
   16886:	577d                	li	a4,-1
   16888:	b7f5                	j	0x16874
   1688a:	1101                	addi	sp,sp,-32
   1688c:	ec06                	sd	ra,24(sp)
   1688e:	e822                	sd	s0,16(sp)
   16890:	e426                	sd	s1,8(sp)
   16892:	cd29                	beqz	a0,0x168ec
   16894:	0005079b          	sext.w	a5,a0
   16898:	03f55493          	srli	s1,a0,0x3f
   1689c:	00055463          	bgez	a0,0x168a4
   168a0:	40f007bb          	negw	a5,a5
   168a4:	02079413          	slli	s0,a5,0x20
   168a8:	9001                	srli	s0,s0,0x20
   168aa:	8522                	mv	a0,s0
   168ac:	160000ef          	jal	ra,0x16a0c
   168b0:	6691                	lui	a3,0x4
   168b2:	03e6879b          	addiw	a5,a3,62
   168b6:	40a7873b          	subw	a4,a5,a0
   168ba:	02f6869b          	addiw	a3,a3,47
   168be:	9e99                	subw	a3,a3,a4
   168c0:	00d417b3          	sll	a5,s0,a3
   168c4:	6621                	lui	a2,0x8
   168c6:	56fd                	li	a3,-1
   168c8:	167d                	addi	a2,a2,-1
   168ca:	0106d413          	srli	s0,a3,0x10
   168ce:	8f71                	and	a4,a4,a2
   168d0:	8fe1                	and	a5,a5,s0
   168d2:	60e2                	ld	ra,24(sp)
   168d4:	6442                	ld	s0,16(sp)
   168d6:	1742                	slli	a4,a4,0x30
   168d8:	8fd9                	or	a5,a5,a4
   168da:	8285                	srli	a3,a3,0x1
   168dc:	03f49593          	slli	a1,s1,0x3f
   168e0:	8ff5                	and	a5,a5,a3
   168e2:	64a2                	ld	s1,8(sp)
   168e4:	4501                	li	a0,0
   168e6:	8ddd                	or	a1,a1,a5
   168e8:	6105                	addi	sp,sp,32
   168ea:	8082                	ret
   168ec:	4781                	li	a5,0
   168ee:	4701                	li	a4,0
   168f0:	4481                	li	s1,0
   168f2:	bfc9                	j	0x168c4
   168f4:	1141                	addi	sp,sp,-16
   168f6:	e406                	sd	ra,8(sp)
   168f8:	e022                	sd	s0,0(sp)
   168fa:	c121                	beqz	a0,0x1693a
   168fc:	02051413          	slli	s0,a0,0x20
   16900:	9001                	srli	s0,s0,0x20
   16902:	8522                	mv	a0,s0
   16904:	108000ef          	jal	ra,0x16a0c
   16908:	6711                	lui	a4,0x4
   1690a:	03e7079b          	addiw	a5,a4,62
   1690e:	9f89                	subw	a5,a5,a0
   16910:	02f7071b          	addiw	a4,a4,47
   16914:	9f1d                	subw	a4,a4,a5
   16916:	00e41433          	sll	s0,s0,a4
   1691a:	6721                	lui	a4,0x8
   1691c:	55fd                	li	a1,-1
   1691e:	177d                	addi	a4,a4,-1
   16920:	0105d513          	srli	a0,a1,0x10
   16924:	8ff9                	and	a5,a5,a4
   16926:	8c69                	and	s0,s0,a0
   16928:	17c2                	slli	a5,a5,0x30
   1692a:	8c5d                	or	s0,s0,a5
   1692c:	8185                	srli	a1,a1,0x1
   1692e:	8de1                	and	a1,a1,s0
   16930:	60a2                	ld	ra,8(sp)
   16932:	6402                	ld	s0,0(sp)
   16934:	4501                	li	a0,0
   16936:	0141                	addi	sp,sp,16
   16938:	8082                	ret
   1693a:	4401                	li	s0,0
   1693c:	4781                	li	a5,0
   1693e:	bff1                	j	0x1691a
   16940:	1101                	addi	sp,sp,-32
   16942:	e426                	sd	s1,8(sp)
   16944:	ec06                	sd	ra,24(sp)
   16946:	e822                	sd	s0,16(sp)
   16948:	e20504d3          	fmv.x.d	s1,fa0
   1694c:	002027f3          	frrm	a5
   16950:	0344d513          	srli	a0,s1,0x34
   16954:	7ff57513          	andi	a0,a0,2047
   16958:	547d                	li	s0,-1
   1695a:	00150793          	addi	a5,a0,1
   1695e:	8031                	srli	s0,s0,0xc
   16960:	7fe7f793          	andi	a5,a5,2046
   16964:	8c65                	and	s0,s0,s1
   16966:	90fd                	srli	s1,s1,0x3f
   16968:	cb91                	beqz	a5,0x1697c
   1696a:	6791                	lui	a5,0x4
   1696c:	c0078793          	addi	a5,a5,-1024 # 0x3c00
   16970:	953e                	add	a0,a0,a5
   16972:	00445793          	srli	a5,s0,0x4
   16976:	1472                	slli	s0,s0,0x3c
   16978:	4701                	li	a4,0
   1697a:	a8b9                	j	0x169d8
   1697c:	ed1d                	bnez	a0,0x169ba
   1697e:	4781                	li	a5,0
   16980:	dc65                	beqz	s0,0x16978
   16982:	8522                	mv	a0,s0
   16984:	088000ef          	jal	ra,0x16a0c
   16988:	0005071b          	sext.w	a4,a0
   1698c:	47b9                	li	a5,14
   1698e:	02e7c063          	blt	a5,a4,0x169ae
   16992:	47bd                	li	a5,15
   16994:	9f89                	subw	a5,a5,a0
   16996:	0315071b          	addiw	a4,a0,49
   1699a:	00f457b3          	srl	a5,s0,a5
   1699e:	00e41433          	sll	s0,s0,a4
   169a2:	6711                	lui	a4,0x4
   169a4:	c0c7071b          	addiw	a4,a4,-1012
   169a8:	40a7053b          	subw	a0,a4,a0
   169ac:	b7f1                	j	0x16978
   169ae:	ff15079b          	addiw	a5,a0,-15
   169b2:	00f417b3          	sll	a5,s0,a5
   169b6:	4401                	li	s0,0
   169b8:	b7ed                	j	0x169a2
   169ba:	c429                	beqz	s0,0x16a04
   169bc:	4685                	li	a3,1
   169be:	03369713          	slli	a4,a3,0x33
   169c2:	8f61                	and	a4,a4,s0
   169c4:	00445793          	srli	a5,s0,0x4
   169c8:	00173713          	seqz	a4,a4
   169cc:	16be                	slli	a3,a3,0x2f
   169ce:	6521                	lui	a0,0x8
   169d0:	0712                	slli	a4,a4,0x4
   169d2:	8fd5                	or	a5,a5,a3
   169d4:	1472                	slli	s0,s0,0x3c
   169d6:	157d                	addi	a0,a0,-1
   169d8:	6621                	lui	a2,0x8
   169da:	56fd                	li	a3,-1
   169dc:	167d                	addi	a2,a2,-1
   169de:	0106d593          	srli	a1,a3,0x10
   169e2:	8d71                	and	a0,a0,a2
   169e4:	1542                	slli	a0,a0,0x30
   169e6:	8dfd                	and	a1,a1,a5
   169e8:	8dc9                	or	a1,a1,a0
   169ea:	8285                	srli	a3,a3,0x1
   169ec:	14fe                	slli	s1,s1,0x3f
   169ee:	8df5                	and	a1,a1,a3
   169f0:	8dc5                	or	a1,a1,s1
   169f2:	c319                	beqz	a4,0x169f8
   169f4:	00172073          	csrs	fflags,a4
   169f8:	8522                	mv	a0,s0
   169fa:	60e2                	ld	ra,24(sp)
   169fc:	6442                	ld	s0,16(sp)
   169fe:	64a2                	ld	s1,8(sp)
   16a00:	6105                	addi	sp,sp,32
   16a02:	8082                	ret
   16a04:	6521                	lui	a0,0x8
   16a06:	4781                	li	a5,0
   16a08:	157d                	addi	a0,a0,-1
   16a0a:	b7bd                	j	0x16978
   16a0c:	03800793          	li	a5,56
   16a10:	00f55733          	srl	a4,a0,a5
   16a14:	0ff77713          	zext.b	a4,a4
   16a18:	e319                	bnez	a4,0x16a1e
   16a1a:	17e1                	addi	a5,a5,-8
   16a1c:	fbf5                	bnez	a5,0x16a10
   16a1e:	04000713          	li	a4,64
   16a22:	8f1d                	sub	a4,a4,a5
   16a24:	00f557b3          	srl	a5,a0,a5
   16a28:	00002517          	auipc	a0,0x2
   16a2c:	6d853503          	ld	a0,1752(a0) # 0x19100
   16a30:	97aa                	add	a5,a5,a0
   16a32:	0007c503          	lbu	a0,0(a5)
   16a36:	40a7053b          	subw	a0,a4,a0
   16a3a:	8082                	ret

Disassembly of section .rodata:

0000000000016a40 <.rodata>:
   16a40:	6568                	ld	a0,200(a0)
   16a42:	6c6c                	ld	a1,216(s0)
   16a44:	6f77206f          	j	0x8993a
   16a48:	6c72                	ld	s8,280(sp)
   16a4a:	0a64                	addi	s1,sp,284
   16a4c:	0000                	unimp
   16a4e:	0000                	unimp
   16a50:	7665642f          	0x7665642f
   16a54:	6c756e2f          	0x6c756e2f
   16a58:	006c                	addi	a1,sp,12
   16a5a:	0000                	unimp
   16a5c:	0000                	unimp
   16a5e:	0000                	unimp
   16a60:	2f637273          	csrrci	tp,0x2f6,6
   16a64:	6d6d6f63          	bltu	s10,s6,0x17142
   16a68:	6d2f6e6f          	jal	t3,0x10d13a
   16a6c:	6d65                	lui	s10,0x19
   16a6e:	6966                	ld	s2,88(sp)
   16a70:	6c6c                	ld	a1,216(s0)
   16a72:	632e                	ld	t1,200(sp)
   16a74:	313a                	fld	ft2,424(sp)
   16a76:	3a32                	fld	fs4,296(sp)
   16a78:	7620                	ld	s0,104(a2)
   16a7a:	666d                	lui	a2,0x1b
   16a7c:	6c69                	lui	s8,0x1a
   16a7e:	206c                	fld	fa1,192(s0)
   16a80:	6166                	ld	sp,88(sp)
   16a82:	6c69                	lui	s8,0x1a
   16a84:	6465                	lui	s0,0x19
   16a86:	203a                	fld	ft0,392(sp)
   16a88:	7325                	lui	t1,0xfffe9
   16a8a:	000a                	c.slli	zero,0x2
   16a8c:	0000                	unimp
   16a8e:	0000                	unimp
   16a90:	0001                	nop
   16a92:	0000                	unimp
   16a94:	0000                	unimp
   16a96:	0000                	unimp
   16a98:	6b50                	ld	a2,144(a4)
   16a9a:	0001                	nop
   16a9c:	0000                	unimp
   16a9e:	0000                	unimp
   16aa0:	0010                	0x10
   16aa2:	0000                	unimp
   16aa4:	0000                	unimp
   16aa6:	0000                	unimp
   16aa8:	6b58                	ld	a4,144(a4)
   16aaa:	0001                	nop
   16aac:	0000                	unimp
   16aae:	0000                	unimp
   16ab0:	0008                	0x8
   16ab2:	0000                	unimp
   16ab4:	0000                	unimp
   16ab6:	0000                	unimp
   16ab8:	6b60                	ld	s0,208(a4)
   16aba:	0001                	nop
   16abc:	0000                	unimp
   16abe:	0000                	unimp
   16ac0:	0002                	c.slli64	zero
   16ac2:	0000                	unimp
   16ac4:	0000                	unimp
   16ac6:	0000                	unimp
   16ac8:	6b70                	ld	a2,208(a4)
   16aca:	0001                	nop
   16acc:	0000                	unimp
   16ace:	0000                	unimp
   16ad0:	0004                	0x4
   16ad2:	0000                	unimp
   16ad4:	0000                	unimp
   16ad6:	0000                	unimp
   16ad8:	6b80                	ld	s0,16(a5)
   16ada:	0001                	nop
   16adc:	0000                	unimp
   16ade:	0000                	unimp
   16ae0:	6b30                	ld	a2,80(a4)
   16ae2:	0001                	nop
   16ae4:	0000                	unimp
   16ae6:	0000                	unimp
   16ae8:	6b38                	ld	a4,80(a4)
   16aea:	0001                	nop
   16aec:	0000                	unimp
   16aee:	0000                	unimp
   16af0:	6b40                	ld	s0,144(a4)
   16af2:	0001                	nop
   16af4:	0000                	unimp
   16af6:	0000                	unimp
   16af8:	6b48                	ld	a0,144(a4)
   16afa:	0001                	nop
   16afc:	0000                	unimp
   16afe:	0000                	unimp
   16b00:	007c                	addi	a5,sp,12
   16b02:	0000                	unimp
   16b04:	0000                	unimp
   16b06:	0000                	unimp
   16b08:	0030                	addi	a2,sp,8
   16b0a:	0000                	unimp
   16b0c:	0000                	unimp
   16b0e:	0000                	unimp
   16b10:	7325                	lui	t1,0xfffe9
   16b12:	7325                	lui	t1,0xfffe9
   16b14:	0000                	unimp
   16b16:	0000                	unimp
   16b18:	7325                	lui	t1,0xfffe9
   16b1a:	6425                	lui	s0,0x9
   16b1c:	0000                	unimp
   16b1e:	0000                	unimp
   16b20:	7325                	lui	t1,0xfffe9
   16b22:	0000                	unimp
   16b24:	0000                	unimp
   16b26:	0000                	unimp
   16b28:	3f52                	fld	ft10,304(sp)
   16b2a:	0000                	unimp
   16b2c:	0000                	unimp
   16b2e:	0000                	unimp
   16b30:	4e52                	lw	t3,20(sp)
   16b32:	0000                	unimp
   16b34:	0000                	unimp
   16b36:	0000                	unimp
   16b38:	5a52                	lw	s4,52(sp)
   16b3a:	0000                	unimp
   16b3c:	0000                	unimp
   16b3e:	0000                	unimp
   16b40:	4452                	lw	s0,20(sp)
   16b42:	0000                	unimp
   16b44:	0000                	unimp
   16b46:	0000                	unimp
   16b48:	5552                	lw	a0,52(sp)
   16b4a:	0000                	unimp
   16b4c:	0000                	unimp
   16b4e:	0000                	unimp
   16b50:	4e49                	li	t3,18
   16b52:	5845                	li	a6,-15
   16b54:	4341                	li	t1,16
   16b56:	0054                	addi	a3,sp,4
   16b58:	4e49                	li	t3,18
   16b5a:	4156                	lw	sp,84(sp)
   16b5c:	494c                	lw	a1,20(a0)
   16b5e:	0044                	addi	s1,sp,4
   16b60:	4944                	lw	s1,20(a0)
   16b62:	4256                	lw	tp,84(sp)
   16b64:	5a59                	li	s4,-10
   16b66:	5245                	li	tp,-15
   16b68:	0000004f          	fnmadd.s	ft0,ft0,ft0,ft0,rne
   16b6c:	0000                	unimp
   16b6e:	0000                	unimp
   16b70:	4e55                	li	t3,21
   16b72:	4544                	lw	s1,12(a0)
   16b74:	4652                	lw	a2,20(sp)
   16b76:	4f4c                	lw	a1,28(a4)
   16b78:	00000057          	0x57
   16b7c:	0000                	unimp
   16b7e:	0000                	unimp
   16b80:	5245564f          	fnmadd.d	fa2,fa0,ft4,fa0,unknown
   16b84:	4c46                	lw	s8,80(sp)
   16b86:	0000574f          	fnmadd.s	fa4,ft0,ft0,ft0,unknown
   16b8a:	0000                	unimp
   16b8c:	0000                	unimp
   16b8e:	0000                	unimp
   16b90:	2e25                	addiw	t3,t3,9
   16b92:	732a                	ld	t1,168(sp)
   16b94:	0073252f          	amoadd.w	a0,t2,(t1)
   16b98:	2f2e                	fld	ft10,200(sp)
   16b9a:	7325                	lui	t1,0xfffe9
   16b9c:	0000                	unimp
   16b9e:	0000                	unimp
   16ba0:	2f637273          	csrrci	tp,0x2f6,6
   16ba4:	6d6d6f63          	bltu	s10,s6,0x17282
   16ba8:	732f6e6f          	jal	t3,0x10d2da
   16bac:	7465                	lui	s0,0xffff9
   16bae:	6c72                	ld	s8,280(sp)
   16bb0:	6d69                	lui	s10,0x1a
   16bb2:	632e                	ld	t1,200(sp)
   16bb4:	313a                	fld	ft2,424(sp)
   16bb6:	3a31                	addiw	s4,s4,-20
   16bb8:	6720                	ld	s0,72(a4)
   16bba:	7465                	lui	s0,0xffff9
   16bbc:	6c72                	ld	s8,280(sp)
   16bbe:	6d69                	lui	s10,0x1a
   16bc0:	7469                	lui	s0,0xffffa
   16bc2:	2520                	fld	fs0,72(a0)
   16bc4:	3a64                	fld	fs1,240(a2)
   16bc6:	2520                	fld	fs0,72(a0)
   16bc8:	00000a73          	0xa73
   16bcc:	0000                	unimp
   16bce:	0000                	unimp
   16bd0:	2f637273          	csrrci	tp,0x2f6,6
   16bd4:	6d6d6f63          	bltu	s10,s6,0x172b2
   16bd8:	732f6e6f          	jal	t3,0x10d30a
   16bdc:	7465                	lui	s0,0xffff9
   16bde:	6c72                	ld	s8,280(sp)
   16be0:	6d69                	lui	s10,0x1a
   16be2:	632e                	ld	t1,200(sp)
   16be4:	323a                	fld	ft4,424(sp)
   16be6:	3a31                	addiw	s4,s4,-20
   16be8:	7320                	ld	s0,96(a4)
   16bea:	7465                	lui	s0,0xffff9
   16bec:	6c72                	ld	s8,280(sp)
   16bee:	6d69                	lui	s10,0x1a
   16bf0:	7469                	lui	s0,0xffffa
   16bf2:	2528                	fld	fa0,72(a0)
   16bf4:	2c64                	fld	fs1,216(s0)
   16bf6:	2520                	fld	fs0,72(a0)
   16bf8:	646c                	ld	a1,200(s0)
   16bfa:	3a29                	addiw	s4,s4,-22
   16bfc:	2520                	fld	fs0,72(a0)
   16bfe:	00000a73          	0xa73
   16c02:	0000                	unimp
   16c04:	0000                	unimp
   16c06:	0000                	unimp
   16c08:	54552e43          	0x54552e43
   16c0c:	2d46                	fld	fs10,80(sp)
   16c0e:	0038                	addi	a4,sp,8
   16c10:	4f50                	lw	a2,28(a4)
   16c12:	2e584953          	0x2e584953
   16c16:	5455                	li	s0,-11
   16c18:	2d46                	fld	fs10,80(sp)
   16c1a:	0038                	addi	a4,sp,8
   16c1c:	0000                	unimp
   16c1e:	0000                	unimp
   16c20:	6e65                	lui	t3,0x19
   16c22:	555f 2e53 5455      	0x54552e53555f
   16c28:	2d46                	fld	fs10,80(sp)
   16c2a:	0038                	addi	a4,sp,8
   16c2c:	0000                	unimp
   16c2e:	0000                	unimp
   16c30:	6e65                	lui	t3,0x19
   16c32:	475f 2e42 5455      	0x54552e42475f
   16c38:	2d46                	fld	fs10,80(sp)
   16c3a:	0038                	addi	a4,sp,8
   16c3c:	0000                	unimp
   16c3e:	0000                	unimp
   16c40:	6e65                	lui	t3,0x19
   16c42:	552e                	lw	a0,232(sp)
   16c44:	4654                	lw	a3,12(a2)
   16c46:	382d                	addiw	a6,a6,-21
	...
   16c50:	5455                	li	s0,-11
   16c52:	2d46                	fld	fs10,80(sp)
   16c54:	0038                	addi	a4,sp,8
   16c56:	0000                	unimp
   16c58:	2f637273          	csrrci	tp,0x2f6,6
   16c5c:	6d6d6f63          	bltu	s10,s6,0x1733a
   16c60:	752f6e6f          	jal	t3,0x10d3b2
   16c64:	6674                	ld	a3,200(a2)
   16c66:	2e38                	fld	fa4,88(a2)
   16c68:	38313a63          	0x38313a63
   16c6c:	203a                	fld	ft0,392(sp)
   16c6e:	6e6e6163          	bltu	t3,t1,0x17350
   16c72:	7320746f          	jal	s0,0x1e3a4
   16c76:	7465                	lui	s0,0xffff9
   16c78:	5520                	lw	s0,104(a0)
   16c7a:	4654                	lw	a3,12(a2)
   16c7c:	382d                	addiw	a6,a6,-21
   16c7e:	6c20                	ld	s0,88(s0)
   16c80:	6c61636f          	jal	t1,0x2d346
   16c84:	2065                	0x2065
   16c86:	6f66                	ld	t5,88(sp)
   16c88:	2072                	fld	ft0,280(sp)
   16c8a:	6574                	ld	a3,200(a0)
   16c8c:	28207473          	csrrci	s0,0x282,0
   16c90:	65646f63          	bltu	s0,s6,0x172ee
   16c94:	3d746573          	csrrsi	a0,0x3d7,8
   16c98:	7325                	lui	t1,0xfffe9
   16c9a:	0a29                	addi	s4,s4,10
   16c9c:	0000                	unimp
   16c9e:	0000                	unimp
   16ca0:	0b64                	addi	s1,sp,412
   16ca2:	0001                	nop
   16ca4:	0ac0                	addi	s0,sp,340
   16ca6:	0001                	nop
   16ca8:	0ac6                	slli	s5,s5,0x11
   16caa:	0001                	nop
   16cac:	0aca                	slli	s5,s5,0x12
   16cae:	0001                	nop
   16cb0:	0ad0                	addi	a2,sp,340
   16cb2:	0001                	nop
   16cb4:	0ada                	slli	s5,s5,0x16
   16cb6:	0001                	nop
   16cb8:	0ada                	slli	s5,s5,0x16
   16cba:	0001                	nop
   16cbc:	0b26                	slli	s6,s6,0x9
   16cbe:	0001                	nop
   16cc0:	0b26                	slli	s6,s6,0x9
   16cc2:	0001                	nop
   16cc4:	0b60                	addi	s0,sp,412
   16cc6:	0001                	nop
   16cc8:	ff02                	sd	zero,440(sp)
   16cca:	8006                	c.mv	zero,ra
   16ccc:	0064                	addi	s1,sp,12
   16cce:	0020                	addi	s0,sp,8
   16cd0:	ffff8007          	0xffff8007
   16cd4:	0006                	c.slli	zero,0x1
   16cd6:	0001                	nop
   16cd8:	0001                	nop
   16cda:	0001                	nop
   16cdc:	ffff                	0xffff
   16cde:	ff01                	bnez	a4,0x16bf6
   16ce0:	ff01                	bnez	a4,0x16bf8
   16ce2:	ffff                	0xffff
   16ce4:	ffff                	0xffff
   16ce6:	ff01                	bnez	a4,0x16bfe
   16ce8:	ff01                	bnez	a4,0x16c00
   16cea:	ff01                	bnez	a4,0x16c02
   16cec:	ff01                	bnez	a4,0x16c04
   16cee:	ff01                	bnez	a4,0x16c06
   16cf0:	ff01                	bnez	a4,0x16c08
   16cf2:	ff01                	bnez	a4,0x16c0a
   16cf4:	ff01                	bnez	a4,0x16c0c
   16cf6:	ffff                	0xffff
   16cf8:	ffff                	0xffff
   16cfa:	ff0a                	sd	sp,440(sp)
   16cfc:	0020                	addi	s0,sp,8
   16cfe:	ffff                	0xffff
   16d00:	ff01ff03          	0xff01ff03
   16d04:	ff04                	sd	s1,56(a4)
   16d06:	001e                	c.slli	zero,0x7
   16d08:	0100                	addi	s0,sp,128
   16d0a:	ff05                	bnez	a4,0x16c42
   16d0c:	ffff                	0xffff
   16d0e:	ffff                	0xffff
   16d10:	08000063          	beqz	zero,0x16d90
   16d14:	03e80063          	beq	a6,t5,0x16d34
   16d18:	0002                	c.slli64	zero
   16d1a:	0000                	unimp
   16d1c:	ffff                	0xffff
   16d1e:	ffff                	0xffff
   16d20:	00ff                	0xff
   16d22:	0000                	unimp
   16d24:	ff01                	bnez	a4,0x16c3c
   16d26:	ff01                	bnez	a4,0x16c3e
   16d28:	ffff                	0xffff
   16d2a:	ffff                	0xffff
   16d2c:	ffff                	0xffff
   16d2e:	ffff                	0xffff
   16d30:	ffff                	0xffff
	...
   16d3e:	0000                	unimp
   16d40:	0400                	addi	s0,sp,512
	...
   16d4e:	ff01                	bnez	a4,0x16c66
   16d50:	ff01                	bnez	a4,0x16c68
   16d52:	ffff                	0xffff
   16d54:	ffff                	0xffff
   16d56:	0100                	addi	s0,sp,128
   16d58:	0020                	addi	s0,sp,8
   16d5a:	0004                	0x4
   16d5c:	0080                	addi	s0,sp,64
   16d5e:	0800                	addi	s0,sp,16
   16d60:	ffff                	0xffff
   16d62:	ff01                	bnez	a4,0x16c7a
   16d64:	ff01                	bnez	a4,0x16c7c
   16d66:	ff01                	bnez	a4,0x16c7e
   16d68:	ffff                	0xffff
   16d6a:	ffff                	0xffff
   16d6c:	ff01                	bnez	a4,0x16c84
   16d6e:	ff06                	sd	ra,440(sp)
   16d70:	ff08ff07          	0xff08ff07
   16d74:	ff09                	bnez	a4,0x16c8e
   16d76:	ffff                	0xffff
   16d78:	ffff                	0xffff
   16d7a:	02bc                	addi	a5,sp,328
   16d7c:	02bc                	addi	a5,sp,328
   16d7e:	0001                	nop
   16d80:	ffff                	0xffff
   16d82:	0001                	nop
   16d84:	0001                	nop
   16d86:	ffff                	0xffff
   16d88:	0000                	unimp
   16d8a:	ffff                	0xffff
   16d8c:	ffff                	0xffff
   16d8e:	ffff                	0xffff
   16d90:	ffff                	0xffff
	...
   16da2:	0014                	0x14
	...
   16dc0:	0000                	unimp
   16dc2:	ffff                	0xffff
   16dc4:	ff0a                	sd	sp,440(sp)
   16dc6:	0001                	nop
   16dc8:	ffff                	0xffff
   16dca:	ffff                	0xffff
   16dcc:	ffff                	0xffff
   16dce:	ffff                	0xffff
   16dd0:	ff01                	bnez	a4,0x16ce8
   16dd2:	ff01                	bnez	a4,0x16cea
   16dd4:	0000                	unimp
   16dd6:	0000                	unimp
   16dd8:	0000                	unimp
   16dda:	ff01                	bnez	a4,0x16cf2
   16ddc:	ff01                	bnez	a4,0x16cf4
   16dde:	ff01                	bnez	a4,0x16cf6
	...
   16df0:	0000                	unimp
   16df2:	ff01                	bnez	a4,0x16d0a
   16df4:	0000                	unimp
   16df6:	0000                	unimp
   16df8:	0000                	unimp
   16dfa:	ff01                	bnez	a4,0x16d12
   16dfc:	ff01                	bnez	a4,0x16d14
   16dfe:	0001                	nop
   16e00:	0000                	unimp
   16e02:	0001                	nop
   16e04:	0000                	unimp
   16e06:	ff01                	bnez	a4,0x16d1e
   16e08:	ffff                	0xffff
   16e0a:	ffff                	0xffff
   16e0c:	0000                	unimp
   16e0e:	0000                	unimp
   16e10:	ff01                	bnez	a4,0x16d28
   16e12:	ffff                	0xffff
   16e14:	0000                	unimp
   16e16:	0000                	unimp
   16e18:	ffff                	0xffff
   16e1a:	ffff                	0xffff
   16e1c:	ffff                	0xffff
   16e1e:	ffff                	0xffff
   16e20:	ffff                	0xffff
   16e22:	0028                	addi	a0,sp,8
   16e24:	ff0a                	sd	sp,440(sp)
   16e26:	ffff                	0xffff
   16e28:	ffff                	0xffff
   16e2a:	ff0a                	sd	sp,440(sp)
   16e2c:	0001                	nop
   16e2e:	ffff                	0xffff
   16e30:	00ff                	0xff
   16e32:	ffff                	0xffff
   16e34:	ffff                	0xffff
   16e36:	ffff                	0xffff
   16e38:	ffff                	0xffff
	...
   16e9e:	ff01                	bnez	a4,0x16db6
   16ea0:	ff01                	bnez	a4,0x16db8
   16ea2:	ffff                	0xffff
   16ea4:	ff0a                	sd	sp,440(sp)
   16ea6:	0001                	nop
   16ea8:	ffff                	0xffff
   16eaa:	ffff                	0xffff
   16eac:	ffff                	0xffff
   16eae:	ffff                	0xffff
   16eb0:	ffff                	0xffff
   16eb2:	ffff                	0xffff
   16eb4:	ff0a                	sd	sp,440(sp)
   16eb6:	ffff                	0xffff
   16eb8:	ffff                	0xffff
   16eba:	0000                	unimp
   16ebc:	0000                	unimp
   16ebe:	0000                	unimp
   16ec0:	6c49                	lui	s8,0x12
   16ec2:	656c                	ld	a1,200(a0)
   16ec4:	206c6167          	0x206c6167
   16ec8:	7962                	ld	s2,56(sp)
   16eca:	6574                	ld	a3,200(a0)
   16ecc:	7320                	ld	s0,96(a4)
   16ece:	7165                	addi	sp,sp,-400
   16ed0:	6575                	lui	a0,0x1d
   16ed2:	636e                	ld	t1,216(sp)
   16ed4:	0065                	c.nop	25
   16ed6:	6f44                	ld	s1,152(a4)
   16ed8:	616d                	addi	sp,sp,240
   16eda:	6e69                	lui	t3,0x1a
   16edc:	6520                	ld	s0,72(a0)
   16ede:	7272                	ld	tp,312(sp)
   16ee0:	5200726f          	jal	tp,0x1e400
   16ee4:	7365                	lui	t1,0xffff9
   16ee6:	6c75                	lui	s8,0x1d
   16ee8:	2074                	fld	fa3,192(s0)
   16eea:	6f6e                	ld	t5,216(sp)
   16eec:	2074                	fld	fa3,192(s0)
   16eee:	6572                	ld	a0,280(sp)
   16ef0:	7270                	ld	a2,224(a2)
   16ef2:	7365                	lui	t1,0xffff9
   16ef4:	6e65                	lui	t3,0x19
   16ef6:	6174                	ld	a3,192(a0)
   16ef8:	6c62                	ld	s8,24(sp)
   16efa:	0065                	c.nop	25
   16efc:	6f4e                	ld	t5,208(sp)
   16efe:	2074                	fld	fa3,192(s0)
   16f00:	2061                	0x2061
   16f02:	7474                	ld	a3,232(s0)
   16f04:	0079                	c.nop	30
   16f06:	6550                	ld	a2,136(a0)
   16f08:	6d72                	ld	s10,280(sp)
   16f0a:	7369                	lui	t1,0xffffa
   16f0c:	6e6f6973          	csrrsi	s2,0x6e6,30
   16f10:	6420                	ld	s0,72(s0)
   16f12:	6e65                	lui	t3,0x19
   16f14:	6569                	lui	a0,0x1a
   16f16:	0064                	addi	s1,sp,12
   16f18:	7265704f          	fnmadd.d	ft0,fa0,ft6,fa4
   16f1c:	7461                	lui	s0,0xffff8
   16f1e:	6f69                	lui	t5,0x1a
   16f20:	206e                	fld	ft0,216(sp)
   16f22:	6f6e                	ld	t5,216(sp)
   16f24:	2074                	fld	fa3,192(s0)
   16f26:	6570                	ld	a2,200(a0)
   16f28:	6d72                	ld	s10,280(sp)
   16f2a:	7469                	lui	s0,0xffffa
   16f2c:	6574                	ld	a3,200(a0)
   16f2e:	0064                	addi	s1,sp,12
   16f30:	6f4e                	ld	t5,208(sp)
   16f32:	7320                	ld	s0,96(a4)
   16f34:	6375                	lui	t1,0x1d
   16f36:	2068                	fld	fa0,192(s0)
   16f38:	6966                	ld	s2,88(sp)
   16f3a:	656c                	ld	a1,200(a0)
   16f3c:	6f20                	ld	s0,88(a4)
   16f3e:	2072                	fld	ft0,280(sp)
   16f40:	6964                	ld	s1,208(a0)
   16f42:	6572                	ld	a0,280(sp)
   16f44:	726f7463          	bgeu	t5,t1,0x1766c
   16f48:	0079                	c.nop	30
   16f4a:	6f4e                	ld	t5,208(sp)
   16f4c:	7320                	ld	s0,96(a4)
   16f4e:	6375                	lui	t1,0x1d
   16f50:	2068                	fld	fa0,192(s0)
   16f52:	7270                	ld	a2,224(a2)
   16f54:	7365636f          	jal	t1,0x6d68a
   16f58:	69460073          	0x69460073
   16f5c:	656c                	ld	a1,200(a0)
   16f5e:	6520                	ld	s0,72(a0)
   16f60:	6978                	ld	a4,208(a0)
   16f62:	00737473          	csrrci	s0,0x7,6
   16f66:	6156                	ld	sp,336(sp)
   16f68:	756c                	ld	a1,232(a0)
   16f6a:	2065                	0x2065
   16f6c:	6f74                	ld	a3,216(a4)
   16f6e:	616c206f          	j	0xd9584
   16f72:	6772                	ld	a4,280(sp)
   16f74:	2065                	0x2065
   16f76:	6f66                	ld	t5,88(sp)
   16f78:	2072                	fld	ft0,280(sp)
   16f7a:	6164                	ld	s1,192(a0)
   16f7c:	6174                	ld	a3,192(a0)
   16f7e:	7420                	ld	s0,104(s0)
   16f80:	7079                	c.lui	zero,0xffffe
   16f82:	0065                	c.nop	25
   16f84:	6f4e                	ld	t5,208(sp)
   16f86:	7320                	ld	s0,96(a4)
   16f88:	6170                	ld	a2,192(a0)
   16f8a:	6c206563          	bltu	zero,sp,0x17654
   16f8e:	6665                	lui	a2,0x19
   16f90:	2074                	fld	fa3,192(s0)
   16f92:	64206e6f          	jal	t3,0x1d5d4
   16f96:	7665                	lui	a2,0xffff9
   16f98:	6369                	lui	t1,0x1a
   16f9a:	0065                	c.nop	25
   16f9c:	2074754f          	fnmadd.s	fa0,fs0,ft7,ft4
   16fa0:	6d20666f          	jal	a2,0x1d672
   16fa4:	6d65                	lui	s10,0x19
   16fa6:	0079726f          	jal	tp,0xae7ac
   16faa:	6552                	ld	a0,272(sp)
   16fac:	72756f73          	csrrsi	t5,0x727,10
   16fb0:	62206563          	bltu	zero,sp,0x175da
   16fb4:	7375                	lui	t1,0xffffd
   16fb6:	0079                	c.nop	30
   16fb8:	6e49                	lui	t3,0x12
   16fba:	6574                	ld	a3,200(a0)
   16fbc:	7272                	ld	tp,312(sp)
   16fbe:	7075                	c.lui	zero,0xffffd
   16fc0:	6574                	ld	a3,200(a0)
   16fc2:	2064                	fld	fs1,192(s0)
   16fc4:	74737973          	csrrci	s2,0x747,6
   16fc8:	6d65                	lui	s10,0x19
   16fca:	6320                	ld	s0,64(a4)
   16fcc:	6c61                	lui	s8,0x18
   16fce:	006c                	addi	a1,sp,12
   16fd0:	6552                	ld	a0,272(sp)
   16fd2:	72756f73          	csrrsi	t5,0x727,10
   16fd6:	74206563          	bltu	zero,sp,0x17720
   16fda:	6d65                	lui	s10,0x19
   16fdc:	6f70                	ld	a2,216(a4)
   16fde:	6172                	ld	sp,280(sp)
   16fe0:	6972                	ld	s2,280(sp)
   16fe2:	796c                	ld	a1,240(a0)
   16fe4:	7520                	ld	s0,104(a0)
   16fe6:	616e                	ld	sp,216(sp)
   16fe8:	6176                	ld	sp,344(sp)
   16fea:	6c69                	lui	s8,0x1a
   16fec:	6261                	lui	tp,0x18
   16fee:	656c                	ld	a1,200(a0)
   16ff0:	4900                	lw	s0,16(a0)
   16ff2:	766e                	ld	a2,248(sp)
   16ff4:	6c61                	lui	s8,0x18
   16ff6:	6469                	lui	s0,0x1a
   16ff8:	7320                	ld	s0,96(a4)
   16ffa:	6565                	lui	a0,0x19
   16ffc:	7243006b          	0x7243006b
   17000:	2d73736f          	jal	t1,0x4ead6
   17004:	6564                	ld	s1,200(a0)
   17006:	6976                	ld	s2,344(sp)
   17008:	6c206563          	bltu	zero,sp,0x176d2
   1700c:	6e69                	lui	t3,0x1a
   1700e:	6552006b          	0x6552006b
   17012:	6461                	lui	s0,0x18
   17014:	6f2d                	lui	t5,0xb
   17016:	6c6e                	ld	s8,216(sp)
   17018:	2079                	0x2079
   1701a:	6966                	ld	s2,88(sp)
   1701c:	656c                	ld	a1,200(a0)
   1701e:	7320                	ld	s0,96(a4)
   17020:	7379                	lui	t1,0xffffe
   17022:	6574                	ld	a3,200(a0)
   17024:	006d                	c.nop	27
   17026:	6944                	ld	s1,144(a0)
   17028:	6572                	ld	a0,280(sp)
   1702a:	726f7463          	bgeu	t5,t1,0x17752
   1702e:	2079                	0x2079
   17030:	6f6e                	ld	t5,216(sp)
   17032:	2074                	fld	fa3,192(s0)
   17034:	6d65                	lui	s10,0x19
   17036:	7470                	ld	a2,232(s0)
   17038:	0079                	c.nop	30
   1703a:	6e6e6f43          	fmadd.q	ft10,ft8,ft6,fa3,unknown
   1703e:	6365                	lui	t1,0x19
   17040:	6974                	ld	a3,208(a0)
   17042:	72206e6f          	jal	t3,0x1d764
   17046:	7365                	lui	t1,0xffff9
   17048:	7465                	lui	s0,0xffff9
   1704a:	6220                	ld	s0,64(a2)
   1704c:	2079                	0x2079
   1704e:	6570                	ld	a2,200(a0)
   17050:	7265                	lui	tp,0xffff9
   17052:	4f00                	lw	s0,24(a4)
   17054:	6570                	ld	a2,200(a0)
   17056:	6172                	ld	sp,280(sp)
   17058:	6974                	ld	a3,208(a0)
   1705a:	74206e6f          	jal	t3,0x1d79c
   1705e:	6d69                	lui	s10,0x1a
   17060:	6465                	lui	s0,0x19
   17062:	6f20                	ld	s0,88(a4)
   17064:	7475                	lui	s0,0xffffd
   17066:	4300                	lw	s0,0(a4)
   17068:	656e6e6f          	jal	t3,0xfd6be
   1706c:	6f697463          	bgeu	s2,s6,0x17754
   17070:	206e                	fld	ft0,216(sp)
   17072:	6572                	ld	a0,280(sp)
   17074:	7566                	ld	a0,120(sp)
   17076:	00646573          	csrrsi	a0,0x6,8
   1707a:	6f48                	ld	a0,152(a4)
   1707c:	69207473          	csrrci	s0,0x692,0
   17080:	6f642073          	csrs	0x6f6,s0
   17084:	48006e77          	0x48006e77
   17088:	2074736f          	jal	t1,0x5ea8e
   1708c:	7369                	lui	t1,0xffffa
   1708e:	7520                	ld	s0,104(a0)
   17090:	726e                	ld	tp,248(sp)
   17092:	6165                	addi	sp,sp,112
   17094:	62616863          	bltu	sp,t1,0x176c4
   17098:	656c                	ld	a1,200(a0)
   1709a:	4100                	lw	s0,0(a0)
   1709c:	6464                	ld	s1,200(s0)
   1709e:	6572                	ld	a0,280(sp)
   170a0:	69207373          	csrrci	t1,0x692,0
   170a4:	206e                	fld	ft0,216(sp)
   170a6:	7375                	lui	t1,0xffffd
   170a8:	0065                	c.nop	25
   170aa:	7242                	ld	tp,48(sp)
   170ac:	6e656b6f          	jal	s6,0x6d792
   170b0:	7020                	ld	s0,96(s0)
   170b2:	7069                	c.lui	zero,0xffffa
   170b4:	0065                	c.nop	25
   170b6:	2f49                	addiw	t5,t5,18
   170b8:	7265204f          	fnmadd.d	ft0,fa0,ft6,fa4,rdn
   170bc:	6f72                	ld	t5,280(sp)
   170be:	0072                	c.slli	zero,0x1c
   170c0:	6f4e                	ld	t5,208(sp)
   170c2:	7320                	ld	s0,96(a4)
   170c4:	6375                	lui	t1,0x1d
   170c6:	2068                	fld	fa0,192(s0)
   170c8:	6564                	ld	s1,200(a0)
   170ca:	6976                	ld	s2,344(sp)
   170cc:	6f206563          	bltu	zero,s2,0x177b6
   170d0:	2072                	fld	ft0,280(sp)
   170d2:	6461                	lui	s0,0x18
   170d4:	7264                	ld	s1,224(a2)
   170d6:	7365                	lui	t1,0xffff9
   170d8:	6c420073          	0x6c420073
   170dc:	206b636f          	jal	t1,0xcd2e2
   170e0:	6564                	ld	s1,200(a0)
   170e2:	6976                	ld	s2,344(sp)
   170e4:	72206563          	bltu	zero,sp,0x1780e
   170e8:	7165                	addi	sp,sp,-400
   170ea:	6975                	lui	s2,0x1d
   170ec:	6572                	ld	a0,280(sp)
   170ee:	0064                	addi	s1,sp,12
   170f0:	6f4e                	ld	t5,208(sp)
   170f2:	7320                	ld	s0,96(a4)
   170f4:	6375                	lui	t1,0x1d
   170f6:	2068                	fld	fa0,192(s0)
   170f8:	6564                	ld	s1,200(a0)
   170fa:	6976                	ld	s2,344(sp)
   170fc:	4e006563          	bltu	zero,zero,0x175e6
   17100:	6120746f          	jal	s0,0x1e712
   17104:	6420                	ld	s0,72(s0)
   17106:	7269                	lui	tp,0xffffa
   17108:	6365                	lui	t1,0x19
   1710a:	6f74                	ld	a3,216(a4)
   1710c:	7972                	ld	s2,312(sp)
   1710e:	4900                	lw	s0,16(a0)
   17110:	20612073          	csrs	0x206,sp
   17114:	6964                	ld	s1,208(a0)
   17116:	6572                	ld	a0,280(sp)
   17118:	726f7463          	bgeu	t5,t1,0x17840
   1711c:	0079                	c.nop	30
   1711e:	6554                	ld	a3,136(a0)
   17120:	7478                	ld	a4,232(s0)
   17122:	6620                	ld	s0,72(a2)
   17124:	6c69                	lui	s8,0x1a
   17126:	2065                	0x2065
   17128:	7562                	ld	a0,56(sp)
   1712a:	45007973          	csrrci	s2,0x450,0
   1712e:	6578                	ld	a4,200(a0)
   17130:	6f662063          	0x6f662063
   17134:	6d72                	ld	s10,280(sp)
   17136:	7461                	lui	s0,0xffff8
   17138:	6520                	ld	s0,72(a0)
   1713a:	7272                	ld	tp,312(sp)
   1713c:	4900726f          	jal	tp,0x1e5cc
   17140:	766e                	ld	a2,248(sp)
   17142:	6c61                	lui	s8,0x18
   17144:	6469                	lui	s0,0x1a
   17146:	6120                	ld	s0,64(a0)
   17148:	6772                	ld	a4,280(sp)
   1714a:	6d75                	lui	s10,0x1d
   1714c:	6e65                	lui	t3,0x19
   1714e:	0074                	addi	a3,sp,12
   17150:	7241                	lui	tp,0xffff0
   17152:	656d7567          	0x656d7567
   17156:	746e                	ld	s0,248(sp)
   17158:	6c20                	ld	s0,88(s0)
   1715a:	7369                	lui	t1,0xffffa
   1715c:	2074                	fld	fa3,192(s0)
   1715e:	6f74                	ld	a3,216(a4)
   17160:	6f6c206f          	j	0xd9856
   17164:	676e                	ld	a4,216(sp)
   17166:	5300                	lw	s0,32(a4)
   17168:	6d79                	lui	s10,0x1e
   1716a:	6f62                	ld	t5,24(sp)
   1716c:	696c                	ld	a1,208(a0)
   1716e:	696c2063          	0x696c2063
   17172:	6b6e                	ld	s6,216(sp)
   17174:	6c20                	ld	s0,88(s0)
   17176:	00706f6f          	jal	t5,0x1d97c
   1717a:	6946                	ld	s2,80(sp)
   1717c:	656c                	ld	a1,200(a0)
   1717e:	616e                	ld	sp,216(sp)
   17180:	656d                	lui	a0,0x1b
   17182:	7420                	ld	s0,104(s0)
   17184:	6c206f6f          	jal	t5,0x1d846
   17188:	00676e6f          	jal	t3,0x8d18e
   1718c:	6f54                	ld	a3,152(a4)
   1718e:	616d206f          	j	0xe97a4
   17192:	796e                	ld	s2,248(sp)
   17194:	6f20                	ld	s0,88(a4)
   17196:	6570                	ld	a2,200(a0)
   17198:	206e                	fld	ft0,216(sp)
   1719a:	6966                	ld	s2,88(sp)
   1719c:	656c                	ld	a1,200(a0)
   1719e:	6e692073          	csrs	0x6e6,s2
   171a2:	7320                	ld	s0,96(a4)
   171a4:	7379                	lui	t1,0xffffe
   171a6:	6574                	ld	a3,200(a0)
   171a8:	006d                	c.nop	27
   171aa:	6f4e                	ld	t5,208(sp)
   171ac:	6620                	ld	s0,72(a2)
   171ae:	6c69                	lui	s8,0x1a
   171b0:	2065                	0x2065
   171b2:	6564                	ld	s1,200(a0)
   171b4:	69726373          	csrrsi	t1,0x697,4
   171b8:	7470                	ld	a2,232(s0)
   171ba:	2073726f          	jal	tp,0x4ebc0
   171be:	7661                	lui	a2,0xffff8
   171c0:	6961                	lui	s2,0x18
   171c2:	616c                	ld	a1,192(a0)
   171c4:	6c62                	ld	s8,24(sp)
   171c6:	0065                	c.nop	25
   171c8:	6142                	ld	sp,16(sp)
   171ca:	2064                	fld	fs1,192(s0)
   171cc:	6966                	ld	s2,88(sp)
   171ce:	656c                	ld	a1,200(a0)
   171d0:	6420                	ld	s0,72(s0)
   171d2:	7365                	lui	t1,0xffff9
   171d4:	70697263          	bgeu	s2,t1,0x178d8
   171d8:	6f74                	ld	a3,216(a4)
   171da:	0072                	c.slli	zero,0x1c
   171dc:	6f4e                	ld	t5,208(sp)
   171de:	6320                	ld	s0,64(a4)
   171e0:	6968                	ld	a0,208(a0)
   171e2:	646c                	ld	a1,200(s0)
   171e4:	7020                	ld	s0,96(s0)
   171e6:	6f72                	ld	t5,280(sp)
   171e8:	73736563          	bltu	t1,s7,0x17912
   171ec:	4200                	lw	s0,0(a2)
   171ee:	6461                	lui	s0,0x18
   171f0:	6120                	ld	s0,64(a0)
   171f2:	6464                	ld	s1,200(s0)
   171f4:	6572                	ld	a0,280(sp)
   171f6:	46007373          	csrrci	t1,0x460,0
   171fa:	6c69                	lui	s8,0x1a
   171fc:	2065                	0x2065
   171fe:	6f74                	ld	a3,216(a4)
   17200:	616c206f          	j	0xd9816
   17204:	6772                	ld	a4,280(sp)
   17206:	0065                	c.nop	25
   17208:	6f54                	ld	a3,152(a4)
   1720a:	616d206f          	j	0xe9820
   1720e:	796e                	ld	s2,248(sp)
   17210:	6c20                	ld	s0,88(s0)
   17212:	6e69                	lui	t3,0x1a
   17214:	4e00736b          	0x4e00736b
   17218:	6f6c206f          	j	0xd990e
   1721c:	20736b63          	bltu	t1,t2,0x17432
   17220:	7661                	lui	a2,0xffff8
   17222:	6961                	lui	s2,0x18
   17224:	616c                	ld	a1,192(a0)
   17226:	6c62                	ld	s8,24(sp)
   17228:	0065                	c.nop	25
   1722a:	6552                	ld	a0,272(sp)
   1722c:	72756f73          	csrrsi	t5,0x727,10
   17230:	64206563          	bltu	zero,sp,0x1787a
   17234:	6165                	addi	sp,sp,112
   17236:	6c64                	ld	s1,216(s0)
   17238:	206b636f          	jal	t1,0xcd43e
   1723c:	6c756f77          	0x6c756f77
   17240:	2064                	fld	fs1,192(s0)
   17242:	7563636f          	jal	t1,0x4d998
   17246:	0072                	c.slli	zero,0x1c
   17248:	74617453          	0x74617453
   1724c:	2065                	0x2065
   1724e:	6f6e                	ld	t5,216(sp)
   17250:	2074                	fld	fa3,192(s0)
   17252:	6572                	ld	a0,280(sp)
   17254:	65766f63          	bltu	a2,s7,0x178b2
   17258:	6172                	ld	sp,280(sp)
   1725a:	6c62                	ld	s8,24(sp)
   1725c:	0065                	c.nop	25
   1725e:	7250                	ld	a2,160(a2)
   17260:	7665                	lui	a2,0xffff9
   17262:	6f69                	lui	t5,0x1a
   17264:	7375                	lui	t1,0xffffd
   17266:	6f20                	ld	s0,88(a4)
   17268:	72656e77          	0x72656e77
   1726c:	6420                	ld	s0,72(s0)
   1726e:	6569                	lui	a0,0x1a
   17270:	0064                	addi	s1,sp,12
   17272:	7265704f          	fnmadd.d	ft0,fa0,ft6,fa4
   17276:	7461                	lui	s0,0xffff8
   17278:	6f69                	lui	t5,0x1a
   1727a:	206e                	fld	ft0,216(sp)
   1727c:	636e6163          	bltu	t3,s6,0x1789e
   17280:	6c65                	lui	s8,0x19
   17282:	6465                	lui	s0,0x19
   17284:	4600                	lw	s0,8(a2)
   17286:	6e75                	lui	t3,0x1d
   17288:	6f697463          	bgeu	s2,s6,0x17970
   1728c:	206e                	fld	ft0,216(sp)
   1728e:	6f6e                	ld	t5,216(sp)
   17290:	2074                	fld	fa3,192(s0)
   17292:	6d69                	lui	s10,0x1a
   17294:	6c70                	ld	a2,216(s0)
   17296:	6d65                	lui	s10,0x19
   17298:	6e65                	lui	t3,0x19
   1729a:	6574                	ld	a3,200(a0)
   1729c:	0064                	addi	s1,sp,12
   1729e:	6f4e                	ld	t5,208(sp)
   172a0:	6d20                	ld	s0,88(a0)
   172a2:	7365                	lui	t1,0xffff9
   172a4:	65676173          	csrrsi	sp,0x656,14
   172a8:	6f20                	ld	s0,88(a4)
   172aa:	2066                	fld	ft0,88(sp)
   172ac:	6564                	ld	s1,200(a0)
   172ae:	65726973          	csrrsi	s2,0x657,4
   172b2:	2064                	fld	fs1,192(s0)
   172b4:	7974                	ld	a3,240(a0)
   172b6:	6570                	ld	a2,200(a0)
   172b8:	4900                	lw	s0,16(a0)
   172ba:	6564                	ld	s1,200(a0)
   172bc:	746e                	ld	s0,248(sp)
   172be:	6669                	lui	a2,0x1a
   172c0:	6569                	lui	a0,0x1a
   172c2:	2072                	fld	ft0,280(sp)
   172c4:	6572                	ld	a0,280(sp)
   172c6:	6f6d                	lui	t5,0x1b
   172c8:	6576                	ld	a0,344(sp)
   172ca:	0064                	addi	s1,sp,12
   172cc:	6544                	ld	s1,136(a0)
   172ce:	6976                	ld	s2,344(sp)
   172d0:	6e206563          	bltu	zero,sp,0x179ba
   172d4:	6120746f          	jal	s0,0x1e8e6
   172d8:	7320                	ld	s0,96(a4)
   172da:	7274                	ld	a3,224(a2)
   172dc:	6165                	addi	sp,sp,112
   172de:	006d                	c.nop	27
   172e0:	6f4e                	ld	t5,208(sp)
   172e2:	6420                	ld	s0,72(s0)
   172e4:	7461                	lui	s0,0xffff8
   172e6:	2061                	0x2061
   172e8:	7661                	lui	a2,0xffff8
   172ea:	6961                	lui	s2,0x18
   172ec:	616c                	ld	a1,192(a0)
   172ee:	6c62                	ld	s8,24(sp)
   172f0:	0065                	c.nop	25
   172f2:	6544                	ld	s1,136(a0)
   172f4:	6976                	ld	s2,344(sp)
   172f6:	74206563          	bltu	zero,sp,0x17a40
   172fa:	6d69                	lui	s10,0x1a
   172fc:	6f65                	lui	t5,0x19
   172fe:	7475                	lui	s0,0xffffd
   17300:	4f00                	lw	s0,24(a4)
   17302:	7475                	lui	s0,0xffffd
   17304:	6f20                	ld	s0,88(a4)
   17306:	2066                	fld	ft0,88(sp)
   17308:	65727473          	csrrci	s0,0x657,4
   1730c:	6d61                	lui	s10,0x18
   1730e:	65722073          	csrs	0x657,tp
   17312:	72756f73          	csrrsi	t5,0x727,10
   17316:	00736563          	bltu	t1,t2,0x17320
   1731a:	694c                	ld	a1,144(a0)
   1731c:	6b6e                	ld	s6,216(sp)
   1731e:	6820                	ld	s0,80(s0)
   17320:	7361                	lui	t1,0xffff8
   17322:	6220                	ld	s0,64(a2)
   17324:	6565                	lui	a0,0x19
   17326:	206e                	fld	ft0,216(sp)
   17328:	65766573          	csrrsi	a0,0x657,12
   1732c:	6572                	ld	a0,280(sp)
   1732e:	0064                	addi	s1,sp,12
   17330:	7250                	ld	a2,160(a2)
   17332:	636f746f          	jal	s0,0x10e968
   17336:	65206c6f          	jal	s8,0x1d988
   1733a:	7272                	ld	tp,312(sp)
   1733c:	4200726f          	jal	tp,0x1e75c
   17340:	6461                	lui	s0,0x18
   17342:	6d20                	ld	s0,88(a0)
   17344:	7365                	lui	t1,0xffff9
   17346:	65676173          	csrrsi	sp,0x656,14
   1734a:	4600                	lw	s0,8(a2)
   1734c:	6c69                	lui	s8,0x1a
   1734e:	2065                	0x2065
   17350:	6564                	ld	s1,200(a0)
   17352:	69726373          	csrrsi	t1,0x697,4
   17356:	7470                	ld	a2,232(s0)
   17358:	6920726f          	jal	tp,0x1e9ea
   1735c:	206e                	fld	ft0,216(sp)
   1735e:	6162                	ld	sp,24(sp)
   17360:	2064                	fld	fs1,192(s0)
   17362:	74617473          	csrrci	s0,0x746,2
   17366:	0065                	c.nop	25
   17368:	6f4e                	ld	t5,208(sp)
   1736a:	2074                	fld	fa3,192(s0)
   1736c:	2061                	0x2061
   1736e:	6b636f73          	csrrsi	t5,0x6b6,6
   17372:	7465                	lui	s0,0xffff9
   17374:	4400                	lw	s0,8(s0)
   17376:	7365                	lui	t1,0xffff9
   17378:	6974                	ld	a3,208(a0)
   1737a:	616e                	ld	sp,216(sp)
   1737c:	6974                	ld	a3,208(a0)
   1737e:	61206e6f          	jal	t3,0x1d990
   17382:	6464                	ld	s1,200(s0)
   17384:	6572                	ld	a0,280(sp)
   17386:	72207373          	csrrci	t1,0x722,0
   1738a:	7165                	addi	sp,sp,-400
   1738c:	6975                	lui	s2,0x1d
   1738e:	6572                	ld	a0,280(sp)
   17390:	0064                	addi	s1,sp,12
   17392:	654d                	lui	a0,0x13
   17394:	67617373          	csrrci	t1,0x676,2
   17398:	2065                	0x2065
   1739a:	6f74                	ld	a3,216(a4)
   1739c:	616c206f          	j	0xd99b2
   173a0:	6772                	ld	a4,280(sp)
   173a2:	0065                	c.nop	25
   173a4:	7250                	ld	a2,160(a2)
   173a6:	636f746f          	jal	s0,0x10e9dc
   173aa:	77206c6f          	jal	s8,0x1db1c
   173ae:	6f72                	ld	t5,280(sp)
   173b0:	676e                	ld	a4,216(sp)
   173b2:	7420                	ld	s0,104(s0)
   173b4:	7079                	c.lui	zero,0xffffe
   173b6:	2065                	0x2065
   173b8:	6f66                	ld	t5,88(sp)
   173ba:	2072                	fld	ft0,280(sp)
   173bc:	6b636f73          	csrrsi	t5,0x6b6,6
   173c0:	7465                	lui	s0,0xffff9
   173c2:	5000                	lw	s0,32(s0)
   173c4:	6f72                	ld	t5,280(sp)
   173c6:	6f74                	ld	a3,216(a4)
   173c8:	206c6f63          	bltu	s8,t1,0x175e6
   173cc:	6f6e                	ld	t5,216(sp)
   173ce:	2074                	fld	fa3,192(s0)
   173d0:	7661                	lui	a2,0xffff8
   173d2:	6961                	lui	s2,0x18
   173d4:	616c                	ld	a1,192(a0)
   173d6:	6c62                	ld	s8,24(sp)
   173d8:	0065                	c.nop	25
   173da:	7250                	ld	a2,160(a2)
   173dc:	636f746f          	jal	s0,0x10ea12
   173e0:	6e206c6f          	jal	s8,0x1dac2
   173e4:	7320746f          	jal	s0,0x1eb16
   173e8:	7075                	c.lui	zero,0xffffd
   173ea:	6f70                	ld	a2,216(a4)
   173ec:	7472                	ld	s0,312(sp)
   173ee:	6465                	lui	s0,0x19
   173f0:	5300                	lw	s0,32(a4)
   173f2:	656b636f          	jal	t1,0xcda48
   173f6:	2074                	fld	fa3,192(s0)
   173f8:	7974                	ld	a3,240(a0)
   173fa:	6570                	ld	a2,200(a0)
   173fc:	6e20                	ld	s0,88(a2)
   173fe:	7320746f          	jal	s0,0x1eb30
   17402:	7075                	c.lui	zero,0xffffd
   17404:	6f70                	ld	a2,216(a4)
   17406:	7472                	ld	s0,312(sp)
   17408:	6465                	lui	s0,0x19
   1740a:	4e00                	lw	s0,24(a2)
   1740c:	7320746f          	jal	s0,0x1eb3e
   17410:	7075                	c.lui	zero,0xffffd
   17412:	6f70                	ld	a2,216(a4)
   17414:	7472                	ld	s0,312(sp)
   17416:	6465                	lui	s0,0x19
   17418:	5000                	lw	s0,32(s0)
   1741a:	6f72                	ld	t5,280(sp)
   1741c:	6f74                	ld	a3,216(a4)
   1741e:	206c6f63          	bltu	s8,t1,0x1763c
   17422:	6166                	ld	sp,88(sp)
   17424:	696d                	lui	s2,0x1b
   17426:	796c                	ld	a1,240(a0)
   17428:	6e20                	ld	s0,88(a2)
   1742a:	7320746f          	jal	s0,0x1eb5c
   1742e:	7075                	c.lui	zero,0xffffd
   17430:	6f70                	ld	a2,216(a4)
   17432:	7472                	ld	s0,312(sp)
   17434:	6465                	lui	s0,0x19
   17436:	4100                	lw	s0,0(a0)
   17438:	6464                	ld	s1,200(s0)
   1743a:	6572                	ld	a0,280(sp)
   1743c:	66207373          	csrrci	t1,0x662,0
   17440:	6d61                	lui	s10,0x18
   17442:	6c69                	lui	s8,0x1a
   17444:	2079                	0x2079
   17446:	6f6e                	ld	t5,216(sp)
   17448:	2074                	fld	fa3,192(s0)
   1744a:	70707573          	csrrci	a0,0x707,0
   1744e:	6574726f          	jal	tp,0x5f2a4
   17452:	2064                	fld	fs1,192(s0)
   17454:	7962                	ld	s2,56(sp)
   17456:	7020                	ld	s0,96(s0)
   17458:	6f72                	ld	t5,280(sp)
   1745a:	6f74                	ld	a3,216(a4)
   1745c:	006c6f63          	bltu	s8,t1,0x1747a
   17460:	6441                	lui	s0,0x10
   17462:	7264                	ld	s1,224(a2)
   17464:	7365                	lui	t1,0xffff9
   17466:	6f6e2073          	csrs	0x6f6,t3
   1746a:	2074                	fld	fa3,192(s0)
   1746c:	7661                	lui	a2,0xffff8
   1746e:	6961                	lui	s2,0x18
   17470:	616c                	ld	a1,192(a0)
   17472:	6c62                	ld	s8,24(sp)
   17474:	0065                	c.nop	25
   17476:	654e                	ld	a0,208(sp)
   17478:	7774                	ld	a3,232(a4)
   1747a:	206b726f          	jal	tp,0xce680
   1747e:	7369                	lui	t1,0xffffa
   17480:	6420                	ld	s0,72(s0)
   17482:	006e776f          	jal	a4,0xfe488
   17486:	654e                	ld	a0,208(sp)
   17488:	7774                	ld	a3,232(a4)
   1748a:	206b726f          	jal	tp,0xce690
   1748e:	6e75                	lui	t3,0x1d
   17490:	6572                	ld	a0,280(sp)
   17492:	6361                	lui	t1,0x18
   17494:	6168                	ld	a0,192(a0)
   17496:	6c62                	ld	s8,24(sp)
   17498:	0065                	c.nop	25
   1749a:	6e6e6f43          	fmadd.q	ft10,ft8,ft6,fa3,unknown
   1749e:	6365                	lui	t1,0x19
   174a0:	6974                	ld	a3,208(a0)
   174a2:	72206e6f          	jal	t3,0x1dbc4
   174a6:	7365                	lui	t1,0xffff9
   174a8:	7465                	lui	s0,0xffff9
   174aa:	6220                	ld	s0,64(a2)
   174ac:	2079                	0x2079
   174ae:	656e                	ld	a0,216(sp)
   174b0:	7774                	ld	a3,232(a4)
   174b2:	006b726f          	jal	tp,0xce4b8
   174b6:	6e6e6f43          	fmadd.q	ft10,ft8,ft6,fa3,unknown
   174ba:	6365                	lui	t1,0x19
   174bc:	6974                	ld	a3,208(a0)
   174be:	61206e6f          	jal	t3,0x1dad0
   174c2:	6f62                	ld	t5,24(sp)
   174c4:	7472                	ld	s0,312(sp)
   174c6:	6465                	lui	s0,0x19
   174c8:	4e00                	lw	s0,24(a2)
   174ca:	7562206f          	j	0x39c20
   174ce:	6666                	ld	a2,88(sp)
   174d0:	7265                	lui	tp,0xffff9
   174d2:	7320                	ld	s0,96(a4)
   174d4:	6170                	ld	a2,192(a0)
   174d6:	61206563          	bltu	zero,s2,0x17ae0
   174da:	6176                	ld	sp,344(sp)
   174dc:	6c69                	lui	s8,0x1a
   174de:	6261                	lui	tp,0x18
   174e0:	656c                	ld	a1,200(a0)
   174e2:	5300                	lw	s0,32(a4)
   174e4:	656b636f          	jal	t1,0xcdb3a
   174e8:	2074                	fld	fa3,192(s0)
   174ea:	7369                	lui	t1,0xffffa
   174ec:	6320                	ld	s0,64(a4)
   174ee:	656e6e6f          	jal	t3,0xfdb44
   174f2:	64657463          	bgeu	a0,t1,0x17b3a
   174f6:	5300                	lw	s0,32(a4)
   174f8:	656b636f          	jal	t1,0xcdb4e
   174fc:	2074                	fld	fa3,192(s0)
   174fe:	6f6e                	ld	t5,216(sp)
   17500:	2074                	fld	fa3,192(s0)
   17502:	6e6e6f63          	bltu	t3,t1,0x17c00
   17506:	6365                	lui	t1,0x19
   17508:	6574                	ld	a3,200(a0)
   1750a:	0064                	addi	s1,sp,12
   1750c:	6e6e6143          	fmadd.q	ft2,ft8,ft6,fa3,unknown
   17510:	7320746f          	jal	s0,0x1ec42
   17514:	6e65                	lui	t3,0x19
   17516:	2064                	fld	fs1,192(s0)
   17518:	6661                	lui	a2,0x18
   1751a:	6574                	ld	a3,200(a0)
   1751c:	2072                	fld	ft0,280(sp)
   1751e:	6b636f73          	csrrsi	t5,0x6b6,6
   17522:	7465                	lui	s0,0xffff9
   17524:	7320                	ld	s0,96(a4)
   17526:	7568                	ld	a0,232(a0)
   17528:	6474                	ld	a3,200(s0)
   1752a:	006e776f          	jal	a4,0xfe530
   1752e:	7265704f          	fnmadd.d	ft0,fa0,ft6,fa4
   17532:	7461                	lui	s0,0xffff8
   17534:	6f69                	lui	t5,0x1a
   17536:	206e                	fld	ft0,216(sp)
   17538:	6c61                	lui	s8,0x18
   1753a:	6572                	ld	a0,280(sp)
   1753c:	6461                	lui	s0,0x18
   1753e:	2079                	0x2079
   17540:	6e69                	lui	t3,0x1a
   17542:	7020                	ld	s0,96(s0)
   17544:	6f72                	ld	t5,280(sp)
   17546:	73657267          	0x73657267
   1754a:	704f0073          	0x704f0073
   1754e:	7265                	lui	tp,0xffff9
   17550:	7461                	lui	s0,0xffff8
   17552:	6f69                	lui	t5,0x1a
   17554:	206e                	fld	ft0,216(sp)
   17556:	6e69                	lui	t3,0x1a
   17558:	7020                	ld	s0,96(s0)
   1755a:	6f72                	ld	t5,280(sp)
   1755c:	73657267          	0x73657267
   17560:	74530073          	0x74530073
   17564:	6c61                	lui	s8,0x18
   17566:	2065                	0x2065
   17568:	6966                	ld	s2,88(sp)
   1756a:	656c                	ld	a1,200(a0)
   1756c:	6820                	ld	s0,80(s0)
   1756e:	6e61                	lui	t3,0x18
   17570:	6c64                	ld	s1,216(s0)
   17572:	0065                	c.nop	25
   17574:	6552                	ld	a0,272(sp)
   17576:	6f6d                	lui	t5,0x1b
   17578:	6574                	ld	a3,200(a0)
   1757a:	4920                	lw	s0,80(a0)
   1757c:	65204f2f          	0x65204f2f
   17580:	7272                	ld	tp,312(sp)
   17582:	5100726f          	jal	tp,0x1ea92
   17586:	6f75                	lui	t5,0x1d
   17588:	6174                	ld	a3,192(a0)
   1758a:	6520                	ld	s0,72(a0)
   1758c:	6378                	ld	a4,192(a4)
   1758e:	6565                	lui	a0,0x19
   17590:	6564                	ld	s1,200(a0)
   17592:	0064                	addi	s1,sp,12
   17594:	6f4e                	ld	t5,208(sp)
   17596:	6d20                	ld	s0,88(a0)
   17598:	6465                	lui	s0,0x19
   1759a:	7569                	lui	a0,0xffffa
   1759c:	206d                	0x206d
   1759e:	6f66                	ld	t5,88(sp)
   175a0:	6e75                	lui	t3,0x1d
   175a2:	0064                	addi	s1,sp,12
   175a4:	6e6f7257          	0x6e6f7257
   175a8:	656d2067          	0x656d2067
   175ac:	6964                	ld	s1,208(a0)
   175ae:	6d75                	lui	s10,0x1d
   175b0:	7420                	ld	s0,104(s0)
   175b2:	7079                	c.lui	zero,0xffffe
   175b4:	0065                	c.nop	25
   175b6:	6f4e                	ld	t5,208(sp)
   175b8:	6520                	ld	s0,72(a0)
   175ba:	7272                	ld	tp,312(sp)
   175bc:	6920726f          	jal	tp,0x1ec4e
   175c0:	666e                	ld	a2,216(sp)
   175c2:	616d726f          	jal	tp,0xeebd8
   175c6:	6974                	ld	a3,208(a0)
   175c8:	00006e6f          	jal	t3,0x1d5c8
   175cc:	0000                	unimp
   175ce:	0000                	unimp
   175d0:	2154                	fld	fa3,128(a0)
   175d2:	1922                	slli	s2,s2,0x28
   175d4:	010d                	addi	sp,sp,3
   175d6:	0302                	c.slli64	t1
   175d8:	4b11                	li	s6,4
   175da:	0c1c                	addi	a5,sp,528
   175dc:	0410                	addi	a2,sp,512
   175de:	1e121d0b          	0x1e121d0b
   175e2:	6f6e6827          	0x6f6e6827
   175e6:	7170                	ld	a2,224(a0)
   175e8:	2062                	fld	ft0,24(sp)
   175ea:	0605                	addi	a2,a2,1
   175ec:	1514130f          	0x1514130f
   175f0:	081a                	slli	a6,a6,0x6
   175f2:	0716                	slli	a4,a4,0x5
   175f4:	2428                	fld	fa0,72(s0)
   175f6:	0a091817          	auipc	a6,0xa091
   175fa:	1b0e                	slli	s6,s6,0x23
   175fc:	251f 8323 7d82      	0x7d828323251f
   17602:	2a26                	fld	fs4,72(sp)
   17604:	3e3d3c2b          	0x3e3d3c2b
   17608:	4a47433f 5a59584d 	0x5a59584d4a47433f
   17610:	5e5d5c5b          	0x5e5d5c5b
   17614:	605f 6361 6564      	0x65646361605f
   1761a:	6766                	ld	a4,88(sp)
   1761c:	6a69                	lui	s4,0x1a
   1761e:	73726c6b          	0x73726c6b
   17622:	7974                	ld	a3,240(a0)
   17624:	7b7a                	ld	s6,440(sp)
   17626:	007c                	addi	a5,sp,12
   17628:	006e7553          	fadd.s	fa0,ft8,ft6
   1762c:	6f4d                	lui	t5,0x13
   1762e:	006e                	c.slli	zero,0x1b
   17630:	7554                	ld	a3,168(a0)
   17632:	0065                	c.nop	25
   17634:	00646557          	0x646557
   17638:	6854                	ld	a3,144(s0)
   1763a:	0075                	c.nop	29
   1763c:	7246                	ld	tp,112(sp)
   1763e:	0069                	c.nop	26
   17640:	00746153          	fadd.s	ft2,fs0,ft7,unknown
   17644:	646e7553          	0x646e7553
   17648:	7961                	lui	s2,0xffff8
   1764a:	4d00                	lw	s0,24(a0)
   1764c:	61646e6f          	jal	t3,0x5dc62
   17650:	0079                	c.nop	30
   17652:	7554                	ld	a3,168(a0)
   17654:	7365                	lui	t1,0xffff9
   17656:	6164                	ld	s1,192(a0)
   17658:	0079                	c.nop	30
   1765a:	6e646557          	0x6e646557
   1765e:	7365                	lui	t1,0xffff9
   17660:	6164                	ld	s1,192(a0)
   17662:	0079                	c.nop	30
   17664:	6854                	ld	a3,144(s0)
   17666:	7275                	lui	tp,0xffffd
   17668:	79616473          	csrrsi	s0,0x796,2
   1766c:	4600                	lw	s0,8(a2)
   1766e:	6972                	ld	s2,280(sp)
   17670:	6164                	ld	s1,192(a0)
   17672:	0079                	c.nop	30
   17674:	75746153          	0x75746153
   17678:	6472                	ld	s0,280(sp)
   1767a:	7961                	lui	s2,0xffff8
   1767c:	4a00                	lw	s0,16(a2)
   1767e:	6e61                	lui	t3,0x18
   17680:	4600                	lw	s0,8(a2)
   17682:	6265                	lui	tp,0x19
   17684:	4d00                	lw	s0,24(a0)
   17686:	7261                	lui	tp,0xffff8
   17688:	4100                	lw	s0,0(a0)
   1768a:	7270                	ld	a2,224(a2)
   1768c:	4d00                	lw	s0,24(a0)
   1768e:	7961                	lui	s2,0xffff8
   17690:	4a00                	lw	s0,16(a2)
   17692:	6e75                	lui	t3,0x1d
   17694:	4a00                	lw	s0,16(a2)
   17696:	6c75                	lui	s8,0x1d
   17698:	4100                	lw	s0,0(a0)
   1769a:	6775                	lui	a4,0x1d
   1769c:	5300                	lw	s0,32(a4)
   1769e:	7065                	c.lui	zero,0xffff9
   176a0:	4f00                	lw	s0,24(a4)
   176a2:	4e007463          	bgeu	zero,zero,0x17b8a
   176a6:	4400766f          	jal	a2,0x1eae6
   176aa:	6365                	lui	t1,0x19
   176ac:	4a00                	lw	s0,16(a2)
   176ae:	6e61                	lui	t3,0x18
   176b0:	6175                	addi	sp,sp,368
   176b2:	7972                	ld	s2,312(sp)
   176b4:	4600                	lw	s0,8(a2)
   176b6:	6265                	lui	tp,0x19
   176b8:	7572                	ld	a0,312(sp)
   176ba:	7261                	lui	tp,0xffff8
   176bc:	0079                	c.nop	30
   176be:	614d                	addi	sp,sp,176
   176c0:	6372                	ld	t1,280(sp)
   176c2:	0068                	addi	a0,sp,12
   176c4:	7041                	c.lui	zero,0xffff0
   176c6:	6972                	ld	s2,280(sp)
   176c8:	006c                	addi	a1,sp,12
   176ca:	614d                	addi	sp,sp,176
   176cc:	0079                	c.nop	30
   176ce:	754a                	ld	a0,176(sp)
   176d0:	656e                	ld	a0,216(sp)
   176d2:	4a00                	lw	s0,16(a2)
   176d4:	6c75                	lui	s8,0x1d
   176d6:	0079                	c.nop	30
   176d8:	7541                	lui	a0,0xffff0
   176da:	74737567          	0x74737567
   176de:	5300                	lw	s0,32(a4)
   176e0:	7065                	c.lui	zero,0xffff9
   176e2:	6574                	ld	a3,200(a0)
   176e4:	626d                	lui	tp,0x1b
   176e6:	7265                	lui	tp,0xffff9
   176e8:	4f00                	lw	s0,24(a4)
   176ea:	626f7463          	bgeu	t5,t1,0x17d12
   176ee:	7265                	lui	tp,0xffff9
   176f0:	4e00                	lw	s0,24(a2)
   176f2:	6d65766f          	jal	a2,0x6edc8
   176f6:	6562                	ld	a0,24(sp)
   176f8:	0072                	c.slli	zero,0x1c
   176fa:	6544                	ld	s1,136(a0)
   176fc:	626d6563          	bltu	s10,t1,0x17d26
   17700:	7265                	lui	tp,0xffff9
   17702:	4100                	lw	s0,0(a0)
   17704:	004d                	c.nop	19
   17706:	4d50                	lw	a2,28(a0)
   17708:	2500                	fld	fs0,8(a0)
   1770a:	2061                	0x2061
   1770c:	6225                	lui	tp,0x9
   1770e:	2520                	fld	fs0,72(a0)
   17710:	2065                	0x2065
   17712:	5425                	li	s0,-23
   17714:	2520                	fld	fs0,72(a0)
   17716:	0059                	c.nop	22
   17718:	6d25                	lui	s10,0x9
   1771a:	2f64252f          	0x2f64252f
   1771e:	7925                	lui	s2,0xfffe9
   17720:	2500                	fld	fs0,8(a0)
   17722:	3a48                	fld	fa0,176(a2)
   17724:	4d25                	li	s10,9
   17726:	253a                	fld	fa0,392(sp)
   17728:	49250053          	0x49250053
   1772c:	253a                	fld	fa0,392(sp)
   1772e:	3a4d                	addiw	s4,s4,-13
   17730:	5325                	li	t1,-23
   17732:	2520                	fld	fs0,72(a0)
   17734:	0070                	addi	a2,sp,12
   17736:	0000                	unimp
   17738:	6d25                	lui	s10,0x9
   1773a:	2f64252f          	0x2f64252f
   1773e:	7925                	lui	s2,0xfffe9
   17740:	3000                	fld	fs0,32(s0)
   17742:	3231                	addiw	tp,tp,-20
   17744:	36353433          	0x36353433
   17748:	00393837          	lui	a6,0x393
   1774c:	6125                	addi	sp,sp,96
   1774e:	2520                	fld	fs0,72(a0)
   17750:	2062                	fld	ft0,24(sp)
   17752:	6525                	lui	a0,0x9
   17754:	2520                	fld	fs0,72(a0)
   17756:	2054                	fld	fa3,128(s0)
   17758:	5925                	li	s2,-23
   1775a:	2500                	fld	fs0,8(a0)
   1775c:	3a48                	fld	fa0,176(a2)
   1775e:	4d25                	li	s10,9
   17760:	253a                	fld	fa0,392(sp)
   17762:	00000053          	fadd.s	ft0,ft0,ft0,rne
   17766:	0000                	unimp
   17768:	5b5e                	lw	s6,244(sp)
   1776a:	5979                	li	s2,-2
   1776c:	005d                	c.nop	23
   1776e:	5b5e                	lw	s6,244(sp)
   17770:	4e6e                	lw	t3,216(sp)
   17772:	005d                	c.nop	23
   17774:	6579                	lui	a0,0x1e
   17776:	6f6e0073          	0x6f6e0073
   1777a:	0000                	unimp
   1777c:	0000                	unimp
   1777e:	0000                	unimp
   17780:	00000043          	fmadd.s	ft0,ft0,ft0,ft0,rne
   17784:	0000                	unimp
   17786:	0000                	unimp
   17788:	5341                	li	t1,-16
   1778a:	00494943          	fmadd.s	fs2,fs2,ft4,ft0,rmm
   1778e:	0000                	unimp
   17790:	54552e43          	0x54552e43
   17794:	2d46                	fld	fs10,80(sp)
   17796:	0038                	addi	a4,sp,8
	...
   177a8:	2120                	fld	fs0,64(a0)
   177aa:	2322                	fld	ft6,8(sp)
   177ac:	2424                	fld	fs1,72(s0)
   177ae:	2525                	addiw	a0,a0,9
   177b0:	2626                	fld	fa2,72(sp)
   177b2:	28282727          	fsw	ft2,654(a6) # 0x39328e
   177b6:	2828                	fld	fa0,80(s0)
   177b8:	2929                	addiw	s2,s2,10
   177ba:	2929                	addiw	s2,s2,10
   177bc:	2a2a                	fld	fs4,136(sp)
   177be:	2a2a                	fld	fs4,136(sp)
   177c0:	2b2b2b2b          	0x2b2b2b2b
   177c4:	2c2c                	fld	fa1,88(s0)
   177c6:	2c2c                	fld	fa1,88(s0)
   177c8:	2c2c                	fld	fa1,88(s0)
   177ca:	2c2c                	fld	fa1,88(s0)
   177cc:	2d2d                	addiw	s10,s10,11
   177ce:	2d2d                	addiw	s10,s10,11
   177d0:	2d2d                	addiw	s10,s10,11
   177d2:	2d2d                	addiw	s10,s10,11
   177d4:	2e2e                	fld	ft8,200(sp)
   177d6:	2e2e                	fld	ft8,200(sp)
   177d8:	2e2e                	fld	ft8,200(sp)
   177da:	2e2e                	fld	ft8,200(sp)
   177dc:	2f2f2f2f          	0x2f2f2f2f
   177e0:	2f2f2f2f          	0x2f2f2f2f
   177e4:	0000                	unimp
   177e6:	0000                	unimp
   177e8:	0100                	addi	s0,sp,128
   177ea:	3502                	fld	fa0,32(sp)
   177ec:	1b360703          	lb	a4,435(a2) # 0x181b3
   177f0:	2604                	fld	fs1,8(a2)
   177f2:	0829                	addi	a6,a6,10
   177f4:	3722                	fld	fa4,40(sp)
   177f6:	1c30                	addi	a2,sp,568
   177f8:	053e                	slli	a0,a0,0xf
   177fa:	2a2c2e27          	fsw	ft2,700(s8) # 0x1d2bc
   177fe:	0916                	slli	s2,s2,0x5
   17800:	2318                	fld	fa4,0(a4)
   17802:	1231383b          	0x1231383b
   17806:	0b1d                	addi	s6,s6,7
   17808:	1a06343f 2f212825 	0x2f2128251a06343f
   17810:	2d3d                	addiw	s10,s10,15
   17812:	3a17152b          	0x3a17152b
   17816:	0a11                	addi	s4,s4,4
   17818:	20241933          	0x20241933
   1781c:	143c                	addi	a5,sp,552
   1781e:	1039                	c.nop	-18
   17820:	1f32                	slli	t5,t5,0x2c
   17822:	0e1e0f13          	addi	t5,t3,225 # 0x180e1
   17826:	0c0d                	addi	s8,s8,3
   17828:	1c9a                	slli	s9,s9,0x26
   1782a:	0001                	nop
   1782c:	1c52                	slli	s8,s8,0x34
   1782e:	0001                	nop
   17830:	1c5e                	slli	s8,s8,0x37
   17832:	0001                	nop
   17834:	1c9a                	slli	s9,s9,0x26
   17836:	0001                	nop
   17838:	1c9a                	slli	s9,s9,0x26
   1783a:	0001                	nop
   1783c:	1c9a                	slli	s9,s9,0x26
   1783e:	0001                	nop
   17840:	1c6a                	slli	s8,s8,0x3a
   17842:	0001                	nop
   17844:	1c76                	slli	s8,s8,0x3d
   17846:	0001                	nop
   17848:	1c82                	slli	s9,s9,0x20
   1784a:	0001                	nop
   1784c:	1c8e                	slli	s9,s9,0x23
   1784e:	0001                	nop
   17850:	1c9a                	slli	s9,s9,0x26
   17852:	0001                	nop
   17854:	1c9a                	slli	s9,s9,0x26
   17856:	0001                	nop
   17858:	1c9a                	slli	s9,s9,0x26
   1785a:	0001                	nop
   1785c:	1c9a                	slli	s9,s9,0x26
   1785e:	0001                	nop
   17860:	1c9a                	slli	s9,s9,0x26
   17862:	0001                	nop
   17864:	1c9a                	slli	s9,s9,0x26
   17866:	0001                	nop
   17868:	1ca4                	addi	s1,sp,632
   1786a:	0001                	nop
   1786c:	1cc4                	addi	s1,sp,628
   1786e:	0001                	nop
   17870:	2f64                	fld	fs1,216(a4)
   17872:	0001                	nop
   17874:	2f84                	fld	fs1,24(a5)
   17876:	0001                	nop
   17878:	2eba                	fld	ft9,392(sp)
   1787a:	0001                	nop
   1787c:	2f84                	fld	fs1,24(a5)
   1787e:	0001                	nop
   17880:	2f64                	fld	fs1,216(a4)
   17882:	0001                	nop
   17884:	2f64                	fld	fs1,216(a4)
   17886:	0001                	nop
   17888:	2f64                	fld	fs1,216(a4)
   1788a:	0001                	nop
   1788c:	2f84                	fld	fs1,24(a5)
   1788e:	0001                	nop
   17890:	2f84                	fld	fs1,24(a5)
   17892:	0001                	nop
   17894:	2f84                	fld	fs1,24(a5)
   17896:	0001                	nop
   17898:	2f84                	fld	fs1,24(a5)
   1789a:	0001                	nop
   1789c:	2f84                	fld	fs1,24(a5)
   1789e:	0001                	nop
   178a0:	2f84                	fld	fs1,24(a5)
   178a2:	0001                	nop
   178a4:	2f84                	fld	fs1,24(a5)
   178a6:	0001                	nop
   178a8:	2f84                	fld	fs1,24(a5)
   178aa:	0001                	nop
   178ac:	2f84                	fld	fs1,24(a5)
   178ae:	0001                	nop
   178b0:	2f84                	fld	fs1,24(a5)
   178b2:	0001                	nop
   178b4:	2f84                	fld	fs1,24(a5)
   178b6:	0001                	nop
   178b8:	2ec6                	fld	ft9,80(sp)
   178ba:	0001                	nop
   178bc:	2f84                	fld	fs1,24(a5)
   178be:	0001                	nop
   178c0:	2f84                	fld	fs1,24(a5)
   178c2:	0001                	nop
   178c4:	2f84                	fld	fs1,24(a5)
   178c6:	0001                	nop
   178c8:	2f84                	fld	fs1,24(a5)
   178ca:	0001                	nop
   178cc:	2cba                	fld	fs9,392(sp)
   178ce:	0001                	nop
   178d0:	2f84                	fld	fs1,24(a5)
   178d2:	0001                	nop
   178d4:	2f84                	fld	fs1,24(a5)
   178d6:	0001                	nop
   178d8:	2f84                	fld	fs1,24(a5)
   178da:	0001                	nop
   178dc:	2f84                	fld	fs1,24(a5)
   178de:	0001                	nop
   178e0:	2f84                	fld	fs1,24(a5)
   178e2:	0001                	nop
   178e4:	2f84                	fld	fs1,24(a5)
   178e6:	0001                	nop
   178e8:	2f84                	fld	fs1,24(a5)
   178ea:	0001                	nop
   178ec:	2f84                	fld	fs1,24(a5)
   178ee:	0001                	nop
   178f0:	2f64                	fld	fs1,216(a4)
   178f2:	0001                	nop
   178f4:	2f84                	fld	fs1,24(a5)
   178f6:	0001                	nop
   178f8:	2e50                	fld	fa2,152(a2)
   178fa:	0001                	nop
   178fc:	2d40                	fld	fs0,152(a0)
   178fe:	0001                	nop
   17900:	2f64                	fld	fs1,216(a4)
   17902:	0001                	nop
   17904:	2f64                	fld	fs1,216(a4)
   17906:	0001                	nop
   17908:	2f64                	fld	fs1,216(a4)
   1790a:	0001                	nop
   1790c:	2f84                	fld	fs1,24(a5)
   1790e:	0001                	nop
   17910:	2d40                	fld	fs0,152(a0)
   17912:	0001                	nop
   17914:	2f84                	fld	fs1,24(a5)
   17916:	0001                	nop
   17918:	2f84                	fld	fs1,24(a5)
   1791a:	0001                	nop
   1791c:	2f84                	fld	fs1,24(a5)
   1791e:	0001                	nop
   17920:	2e6c                	fld	fa1,216(a2)
   17922:	0001                	nop
   17924:	2c6a                	fld	fs8,152(sp)
   17926:	0001                	nop
   17928:	2d08                	fld	fa0,24(a0)
   1792a:	0001                	nop
   1792c:	2ca0                	fld	fs0,88(s1)
   1792e:	0001                	nop
   17930:	2f84                	fld	fs1,24(a5)
   17932:	0001                	nop
   17934:	2f84                	fld	fs1,24(a5)
   17936:	0001                	nop
   17938:	2eaa                	fld	ft9,136(sp)
   1793a:	0001                	nop
   1793c:	2f84                	fld	fs1,24(a5)
   1793e:	0001                	nop
   17940:	2d4e                	fld	fs10,208(sp)
   17942:	0001                	nop
   17944:	2f84                	fld	fs1,24(a5)
   17946:	0001                	nop
   17948:	2f84                	fld	fs1,24(a5)
   1794a:	0001                	nop
   1794c:	2cba                	fld	fs9,392(sp)
   1794e:	0001                	nop
   17950:	2c80                	fld	fs0,24(s1)
   17952:	0001                	nop
   17954:	2c98                	fld	fa4,24(s1)
   17956:	0001                	nop
   17958:	2c98                	fld	fa4,24(s1)
   1795a:	0001                	nop
   1795c:	2c88                	fld	fa0,24(s1)
   1795e:	0001                	nop
   17960:	2c90                	fld	fa2,24(s1)
   17962:	0001                	nop
   17964:	2f30                	fld	fa2,88(a4)
   17966:	0001                	nop
   17968:	2c98                	fld	fa4,24(s1)
   1796a:	0001                	nop
   1796c:	2c98                	fld	fa4,24(s1)
   1796e:	0001                	nop
   17970:	3130                	fld	fa2,96(a0)
   17972:	3332                	fld	ft6,296(sp)
   17974:	3534                	fld	fa3,104(a0)
   17976:	3736                	fld	fa4,360(sp)
   17978:	3938                	fld	fa4,112(a0)
   1797a:	4241                	li	tp,16
   1797c:	46454443          	fmadd.q	fs0,fa0,ft4,fs0,rmm
   17980:	0019                	c.nop	6
   17982:	000a                	c.slli	zero,0x2
   17984:	1919                	addi	s2,s2,-26
   17986:	0019                	c.nop	6
   17988:	0000                	unimp
   1798a:	0500                	addi	s0,sp,640
   1798c:	0000                	unimp
   1798e:	0000                	unimp
   17990:	0000                	unimp
   17992:	0009                	c.nop	2
   17994:	0000                	unimp
   17996:	0b00                	addi	s0,sp,400
	...
   179a0:	0019                	c.nop	6
   179a2:	0a11                	addi	s4,s4,4
   179a4:	1919                	addi	s2,s2,-26
   179a6:	0319                	addi	t1,t1,6
   179a8:	070a                	slli	a4,a4,0x2
   179aa:	0100                	addi	s0,sp,128
   179ac:	180b091b          	addiw	s2,s6,384
   179b0:	0000                	unimp
   179b2:	0609                	addi	a2,a2,2
   179b4:	0b00000b          	0xb00000b
   179b8:	0600                	addi	s0,sp,768
   179ba:	0019                	c.nop	6
   179bc:	0000                	unimp
   179be:	1919                	addi	s2,s2,-26
   179c0:	0019                	c.nop	6
	...
   179ce:	0000                	unimp
   179d0:	0e00                	addi	s0,sp,784
	...
   179da:	0019                	c.nop	6
   179dc:	0d0a                	slli	s10,s10,0x2
   179de:	1919                	addi	s2,s2,-26
   179e0:	0019                	c.nop	6
   179e2:	000d                	c.nop	3
   179e4:	0200                	addi	s0,sp,256
   179e6:	0900                	addi	s0,sp,144
   179e8:	000e                	c.slli	zero,0x3
   179ea:	0000                	unimp
   179ec:	0009                	c.nop	2
   179ee:	000e                	c.slli	zero,0x3
   179f0:	0e00                	addi	s0,sp,784
	...
   17a0a:	0c00                	addi	s0,sp,528
	...
   17a14:	0000                	unimp
   17a16:	1300                	addi	s0,sp,416
   17a18:	0000                	unimp
   17a1a:	0000                	unimp
   17a1c:	00000013          	nop
   17a20:	0900                	addi	s0,sp,144
   17a22:	000c                	0xc
   17a24:	0000                	unimp
   17a26:	0000                	unimp
   17a28:	000c                	0xc
   17a2a:	0c00                	addi	s0,sp,528
	...
   17a44:	1000                	addi	s0,sp,32
	...
   17a4e:	0000                	unimp
   17a50:	0f00                	addi	s0,sp,912
   17a52:	0000                	unimp
   17a54:	0400                	addi	s0,sp,512
   17a56:	0000000f          	fence	unknown,unknown
   17a5a:	0900                	addi	s0,sp,144
   17a5c:	0010                	0x10
   17a5e:	0000                	unimp
   17a60:	0000                	unimp
   17a62:	0010                	0x10
   17a64:	1000                	addi	s0,sp,32
	...
   17a7e:	1200                	addi	s0,sp,288
	...
   17a88:	0000                	unimp
   17a8a:	1100                	addi	s0,sp,160
   17a8c:	0000                	unimp
   17a8e:	0000                	unimp
   17a90:	0011                	c.nop	4
   17a92:	0000                	unimp
   17a94:	0900                	addi	s0,sp,144
   17a96:	0012                	c.slli	zero,0x4
   17a98:	0000                	unimp
   17a9a:	0000                	unimp
   17a9c:	0012                	c.slli	zero,0x4
   17a9e:	1200                	addi	s0,sp,288
   17aa0:	0000                	unimp
   17aa2:	001a                	c.slli	zero,0x6
   17aa4:	0000                	unimp
   17aa6:	1a1a                	slli	s4,s4,0x26
   17aa8:	001a                	c.slli	zero,0x6
	...
   17ac2:	001a                	c.slli	zero,0x6
   17ac4:	0000                	unimp
   17ac6:	1a1a                	slli	s4,s4,0x26
   17ac8:	001a                	c.slli	zero,0x6
   17aca:	0000                	unimp
   17acc:	0000                	unimp
   17ace:	0900                	addi	s0,sp,144
	...
   17af0:	0000                	unimp
   17af2:	1400                	addi	s0,sp,544
	...
   17afc:	0000                	unimp
   17afe:	1700                	addi	s0,sp,928
   17b00:	0000                	unimp
   17b02:	0000                	unimp
   17b04:	00000017          	auipc	zero,0x0
   17b08:	0900                	addi	s0,sp,144
   17b0a:	0014                	0x14
   17b0c:	0000                	unimp
   17b0e:	0000                	unimp
   17b10:	0014                	0x14
   17b12:	1400                	addi	s0,sp,544
	...
   17b2c:	1600                	addi	s0,sp,800
	...
   17b36:	0000                	unimp
   17b38:	1500                	addi	s0,sp,672
   17b3a:	0000                	unimp
   17b3c:	0000                	unimp
   17b3e:	0015                	c.nop	5
   17b40:	0000                	unimp
   17b42:	0900                	addi	s0,sp,144
   17b44:	0016                	c.slli	zero,0x5
   17b46:	0000                	unimp
   17b48:	0000                	unimp
   17b4a:	0016                	c.slli	zero,0x5
   17b4c:	1600                	addi	s0,sp,800
	...
   17b5e:	4002                	0x4002
	...
   17b6c:	0000                	unimp
   17b6e:	4070                	lw	a2,68(s0)
   17b70:	0001                	nop
	...
   17b7e:	4070                	lw	a2,68(s0)
	...
   17b8c:	8000                	0x8000
   17b8e:	3fff                	0x3fff
	...
   17b9c:	0000                	unimp
   17b9e:	3fff                	0x3fff
	...
   17bac:	0000                	unimp
   17bae:	3ffe                	fld	ft11,504(sp)
	...
   17bbc:	0000                	unimp
   17bbe:	00004003          	lbu	zero,0(zero) # 0x0
	...
   17bce:	0000401b          	0x401b
	...
   17bda:	5000                	lw	s0,32(s0)
   17bdc:	dcd6                	sw	s5,120(sp)
   17bde:	401c                	lw	a5,0(s0)
   17be0:	302d                	0x302d
   17be2:	2b58                	fld	fa4,144(a4)
   17be4:	5830                	lw	a2,112(s0)
   17be6:	3020                	fld	fs0,96(s0)
   17be8:	2d58                	fld	fa4,152(a0)
   17bea:	7830                	ld	a2,112(s0)
   17bec:	2078302b          	0x2078302b
   17bf0:	7830                	ld	a2,112(s0)
   17bf2:	0000                	unimp
   17bf4:	0000                	unimp
   17bf6:	0000                	unimp
   17bf8:	6e69                	lui	t3,0x1a
   17bfa:	0066                	c.slli	zero,0x19
   17bfc:	0000                	unimp
   17bfe:	0000                	unimp
   17c00:	4e49                	li	t3,18
   17c02:	0046                	c.slli	zero,0x11
   17c04:	0000                	unimp
   17c06:	0000                	unimp
   17c08:	616e                	ld	sp,216(sp)
   17c0a:	006e                	c.slli	zero,0x1b
   17c0c:	0000                	unimp
   17c0e:	0000                	unimp
   17c10:	414e                	lw	sp,208(sp)
   17c12:	004e                	c.slli	zero,0x13
   17c14:	0000                	unimp
   17c16:	0000                	unimp
   17c18:	002e                	c.slli	zero,0xb
   17c1a:	0000                	unimp
   17c1c:	0000                	unimp
   17c1e:	0000                	unimp
   17c20:	2b2d                	addiw	s6,s6,11
   17c22:	2020                	fld	fs0,64(s0)
   17c24:	3020                	fld	fs0,96(s0)
   17c26:	3058                	fld	fa4,160(s0)
   17c28:	0078                	addi	a4,sp,12
   17c2a:	0000                	unimp
   17c2c:	0000                	unimp
   17c2e:	0000                	unimp
   17c30:	6e28                	ld	a0,88(a2)
   17c32:	6c75                	lui	s8,0x1d
   17c34:	296c                	fld	fa1,208(a0)
   17c36:	0000                	unimp
   17c38:	6f72702f          	0x6f72702f
   17c3c:	65732f63          	0x65732f63
   17c40:	666c                	ld	a1,200(a2)
   17c42:	7361742f          	0x7361742f
   17c46:	434c006b          	0x434c006b
   17c4a:	435f 5954 4550      	0x45505954435f
   17c50:	0000                	unimp
   17c52:	0000                	unimp
   17c54:	434c                	lw	a1,4(a4)
   17c56:	4e5f 4d55 5245      	0x52454d554e5f
   17c5c:	4349                	li	t1,18
   17c5e:	0000                	unimp
   17c60:	434c                	lw	a1,4(a4)
   17c62:	545f 4d49 0045      	0x454d49545f
   17c68:	0000                	unimp
   17c6a:	0000                	unimp
   17c6c:	434c                	lw	a1,4(a4)
   17c6e:	435f 4c4f 414c      	0x414c4c4f435f
   17c74:	4554                	lw	a3,12(a0)
   17c76:	0000                	unimp
   17c78:	434c                	lw	a1,4(a4)
   17c7a:	4d5f 4e4f 5445      	0x54454e4f4d5f
   17c80:	5241                	li	tp,-16
   17c82:	0059                	c.nop	22
   17c84:	434c                	lw	a1,4(a4)
   17c86:	4d5f 5345 4153      	0x415353454d5f
   17c8c:	00534547          	fmsub.s	fa0,ft6,ft5,ft0,rmm
   17c90:	434c                	lw	a1,4(a4)
   17c92:	415f 4c4c 0000      	0x4c4c415f
   17c98:	414c                	lw	a1,4(a0)
   17c9a:	474e                	lw	a4,208(sp)
   17c9c:	0000                	unimp
   17c9e:	0000                	unimp
   17ca0:	4f50                	lw	a2,28(a4)
   17ca2:	00584953          	fadd.s	fs2,fa6,ft5,rmm
   17ca6:	0000                	unimp
   17ca8:	554d                	li	a0,-13
   17caa:	4c5f4c53          	0x4c5f4c53
   17cae:	4150434f          	fnmadd.s	ft6,ft0,fs5,fs0,rmm
   17cb2:	4854                	lw	a3,20(s0)
	...
   17ccc:	0000                	unimp
   17cce:	7d304077          	0x7d304077
   17cd2:	0001                	nop
	...
   17d30:	7d60                	ld	s0,248(a0)
   17d32:	0001                	nop
   17d34:	0000                	unimp
   17d36:	0000                	unimp
   17d38:	0014                	0x14
   17d3a:	0000                	unimp
   17d3c:	0000                	unimp
   17d3e:	0000                	unimp
   17d40:	54552e43          	0x54552e43
   17d44:	2d46                	fld	fs10,80(sp)
   17d46:	0038                	addi	a4,sp,8
	...
   17d60:	12de                	slli	t0,t0,0x37
   17d62:	9504                	0x9504
   17d64:	0000                	unimp
   17d66:	0000                	unimp
   17d68:	ffff                	0xffff
   17d6a:	ffff                	0xffff
   17d6c:	ffff                	0xffff
   17d6e:	ffff                	0xffff
   17d70:	ffff                	0xffff
   17d72:	ffff                	0xffff
   17d74:	dfda                	sw	s6,252(sp)
   17d76:	ffff                	0xffff
   17d78:	dfda                	sw	s6,252(sp)
   17d7a:	ffff                	0xffff
   17d7c:	dff2                	sw	t3,252(sp)
   17d7e:	ffff                	0xffff
   17d80:	dfd4                	sw	a3,60(a5)
   17d82:	ffff                	0xffff
   17d84:	dfd4                	sw	a3,60(a5)
   17d86:	ffff                	0xffff
   17d88:	dd9a                	sw	t1,248(sp)
   17d8a:	ffff                	0xffff
   17d8c:	dff2                	sw	t3,252(sp)
   17d8e:	ffff                	0xffff
   17d90:	dfd4                	sw	a3,60(a5)
   17d92:	ffff                	0xffff
   17d94:	dd9a                	sw	t1,248(sp)
   17d96:	ffff                	0xffff
   17d98:	dfd4                	sw	a3,60(a5)
   17d9a:	ffff                	0xffff
   17d9c:	dff2                	sw	t3,252(sp)
   17d9e:	ffff                	0xffff
   17da0:	dfd2                	sw	s4,252(sp)
   17da2:	ffff                	0xffff
   17da4:	dfd2                	sw	s4,252(sp)
   17da6:	ffff                	0xffff
   17da8:	dfd2                	sw	s4,252(sp)
   17daa:	ffff                	0xffff
   17dac:	e1dc                	sd	a5,128(a1)
   17dae:	ffff                	0xffff
   17db0:	0100                	addi	s0,sp,128
   17db2:	0202                	c.slli64	tp
   17db4:	03030303          	lb	t1,48(t1) # 0x19030
   17db8:	0404                	addi	s1,sp,512
   17dba:	0404                	addi	s1,sp,512
   17dbc:	0404                	addi	s1,sp,512
   17dbe:	0404                	addi	s1,sp,512
   17dc0:	0505                	addi	a0,a0,1
   17dc2:	0505                	addi	a0,a0,1
   17dc4:	0505                	addi	a0,a0,1
   17dc6:	0505                	addi	a0,a0,1
   17dc8:	0505                	addi	a0,a0,1
   17dca:	0505                	addi	a0,a0,1
   17dcc:	0505                	addi	a0,a0,1
   17dce:	0505                	addi	a0,a0,1
   17dd0:	0606                	slli	a2,a2,0x1
   17dd2:	0606                	slli	a2,a2,0x1
   17dd4:	0606                	slli	a2,a2,0x1
   17dd6:	0606                	slli	a2,a2,0x1
   17dd8:	0606                	slli	a2,a2,0x1
   17dda:	0606                	slli	a2,a2,0x1
   17ddc:	0606                	slli	a2,a2,0x1
   17dde:	0606                	slli	a2,a2,0x1
   17de0:	0606                	slli	a2,a2,0x1
   17de2:	0606                	slli	a2,a2,0x1
   17de4:	0606                	slli	a2,a2,0x1
   17de6:	0606                	slli	a2,a2,0x1
   17de8:	0606                	slli	a2,a2,0x1
   17dea:	0606                	slli	a2,a2,0x1
   17dec:	0606                	slli	a2,a2,0x1
   17dee:	0606                	slli	a2,a2,0x1
   17df0:	07070707          	0x7070707
   17df4:	07070707          	0x7070707
   17df8:	07070707          	0x7070707
   17dfc:	07070707          	0x7070707
   17e00:	07070707          	0x7070707
   17e04:	07070707          	0x7070707
   17e08:	07070707          	0x7070707
   17e0c:	07070707          	0x7070707
   17e10:	07070707          	0x7070707
   17e14:	07070707          	0x7070707
   17e18:	07070707          	0x7070707
   17e1c:	07070707          	0x7070707
   17e20:	07070707          	0x7070707
   17e24:	07070707          	0x7070707
   17e28:	07070707          	0x7070707
   17e2c:	07070707          	0x7070707
   17e30:	0808                	addi	a0,sp,16
   17e32:	0808                	addi	a0,sp,16
   17e34:	0808                	addi	a0,sp,16
   17e36:	0808                	addi	a0,sp,16
   17e38:	0808                	addi	a0,sp,16
   17e3a:	0808                	addi	a0,sp,16
   17e3c:	0808                	addi	a0,sp,16
   17e3e:	0808                	addi	a0,sp,16
   17e40:	0808                	addi	a0,sp,16
   17e42:	0808                	addi	a0,sp,16
   17e44:	0808                	addi	a0,sp,16
   17e46:	0808                	addi	a0,sp,16
   17e48:	0808                	addi	a0,sp,16
   17e4a:	0808                	addi	a0,sp,16
   17e4c:	0808                	addi	a0,sp,16
   17e4e:	0808                	addi	a0,sp,16
   17e50:	0808                	addi	a0,sp,16
   17e52:	0808                	addi	a0,sp,16
   17e54:	0808                	addi	a0,sp,16
   17e56:	0808                	addi	a0,sp,16
   17e58:	0808                	addi	a0,sp,16
   17e5a:	0808                	addi	a0,sp,16
   17e5c:	0808                	addi	a0,sp,16
   17e5e:	0808                	addi	a0,sp,16
   17e60:	0808                	addi	a0,sp,16
   17e62:	0808                	addi	a0,sp,16
   17e64:	0808                	addi	a0,sp,16
   17e66:	0808                	addi	a0,sp,16
   17e68:	0808                	addi	a0,sp,16
   17e6a:	0808                	addi	a0,sp,16
   17e6c:	0808                	addi	a0,sp,16
   17e6e:	0808                	addi	a0,sp,16
   17e70:	0808                	addi	a0,sp,16
   17e72:	0808                	addi	a0,sp,16
   17e74:	0808                	addi	a0,sp,16
   17e76:	0808                	addi	a0,sp,16
   17e78:	0808                	addi	a0,sp,16
   17e7a:	0808                	addi	a0,sp,16
   17e7c:	0808                	addi	a0,sp,16
   17e7e:	0808                	addi	a0,sp,16
   17e80:	0808                	addi	a0,sp,16
   17e82:	0808                	addi	a0,sp,16
   17e84:	0808                	addi	a0,sp,16
   17e86:	0808                	addi	a0,sp,16
   17e88:	0808                	addi	a0,sp,16
   17e8a:	0808                	addi	a0,sp,16
   17e8c:	0808                	addi	a0,sp,16
   17e8e:	0808                	addi	a0,sp,16
   17e90:	0808                	addi	a0,sp,16
   17e92:	0808                	addi	a0,sp,16
   17e94:	0808                	addi	a0,sp,16
   17e96:	0808                	addi	a0,sp,16
   17e98:	0808                	addi	a0,sp,16
   17e9a:	0808                	addi	a0,sp,16
   17e9c:	0808                	addi	a0,sp,16
   17e9e:	0808                	addi	a0,sp,16
   17ea0:	0808                	addi	a0,sp,16
   17ea2:	0808                	addi	a0,sp,16
   17ea4:	0808                	addi	a0,sp,16
   17ea6:	0808                	addi	a0,sp,16
   17ea8:	0808                	addi	a0,sp,16
   17eaa:	0808                	addi	a0,sp,16
   17eac:	0808                	addi	a0,sp,16
   17eae:	0808                	addi	a0,sp,16

Disassembly of section .eh_frame:

0000000000017eb0 <.eh_frame>:
   17eb0:	0000                	unimp
	...

Disassembly of section .init_array:

0000000000018ff0 <.init_array>:
   18ff0:	01cc                	addi	a1,sp,196
   18ff2:	0001                	nop
   18ff4:	0000                	unimp
	...

Disassembly of section .fini_array:

0000000000018ff8 <.fini_array>:
   18ff8:	0192                	slli	gp,gp,0x4
   18ffa:	0001                	nop
   18ffc:	0000                	unimp
	...

Disassembly of section .data:

0000000000019000 <.data>:
   19000:	0005                	c.nop	1
	...
   19016:	0000                	unimp
   19018:	455e                	lw	a0,212(sp)
   1901a:	0001                	nop
	...
   19048:	458a                	lw	a1,128(sp)
   1904a:	0001                	nop
   1904c:	0000                	unimp
   1904e:	0000                	unimp
   19050:	457c                	lw	a5,76(a0)
   19052:	0001                	nop
   19054:	0000                	unimp
   19056:	0000                	unimp
   19058:	9a38                	0x9a38
   1905a:	0001                	nop
   1905c:	0000                	unimp
   1905e:	0000                	unimp
   19060:	0400                	addi	s0,sp,512
	...
   19076:	0000                	unimp
   19078:	0001                	nop
	...
   1908a:	0a00                	addi	s0,sp,272
   1908c:	ffff                	0xffff
   1908e:	ffff                	0xffff
	...

Disassembly of section .got:

00000000000190e8 <.got>:
   190e8:	ffff                	0xffff
   190ea:	ffff                	0xffff
   190ec:	ffff                	0xffff
   190ee:	ffff                	0xffff
	...
   19100:	7db0                	ld	a2,120(a1)
   19102:	0001                	nop
   19104:	0000                	unimp
	...

Disassembly of section .sdata:

0000000000019108 <.sdata>:
   19108:	0000                	unimp
   1910a:	0000                	unimp
   1910c:	0000                	unimp
   1910e:	7fe0                	ld	s0,248(a5)
   19110:	0000                	unimp
   19112:	0000                	unimp
   19114:	0000                	unimp
   19116:	3fe0                	fld	fs0,248(a5)
   19118:	7f2d                	lui	t5,0xfffeb
   1911a:	4c95                	li	s9,5
   1911c:	f42d                	bnez	s0,0x19086
   1911e:	5851                	li	a6,-12
   19120:	386d                	addiw	a6,a6,-5
   19122:	cc95                	beqz	s1,0x1915e
   19124:	022fdd63          	bge	t6,sp,0x1915e
   19128:	0000                	unimp
   1912a:	0000                	unimp
   1912c:	0000                	unimp
   1912e:	0360                	addi	s0,sp,396
   19130:	0101                	addi	sp,sp,0
   19132:	0101                	addi	sp,sp,0
   19134:	0101                	addi	sp,sp,0
   19136:	0101                	addi	sp,sp,0
   19138:	feff                	0xfeff
   1913a:	fefe                	sd	t6,376(sp)
   1913c:	fefe                	sd	t6,376(sp)
   1913e:	fefe                	sd	t6,376(sp)
   19140:	8080                	0x8080
   19142:	8080                	0x8080
   19144:	8080                	0x8080
   19146:	8080                	0x8080
   19148:	0000                	unimp
   1914a:	7f80                	ld	s0,56(a5)
   1914c:	0000                	unimp
   1914e:	7f00                	ld	s0,56(a4)
   19150:	0000                	unimp
   19152:	3f00                	fld	fs0,56(a4)
   19154:	0000                	unimp
   19156:	0000                	unimp
   19158:	002e                	c.slli	zero,0xb
   1915a:	0000                	unimp
   1915c:	0000                	unimp
   1915e:	0000                	unimp
   19160:	9000                	0x9000
   19162:	0001                	nop
   19164:	0000                	unimp
   19166:	0000                	unimp
   19168:	ffff                	0xffff
   1916a:	7fff                	0x7fff
   1916c:	fffc                	sd	a5,248(a5)
   1916e:	ffff                	0xffff
   19170:	ffff                	0xffff
   19172:	ffff                	0xffff
   19174:	ffff                	0xffff
   19176:	ffff                	0xffff
	...
   19180:	ffff                	0xffff
   19182:	ffff                	0xffff
   19184:	ffff                	0xffff
   19186:	ffff                	0xffff
   19188:	9000                	0x9000
   1918a:	0001                	nop
   1918c:	0000                	unimp
	...

Disassembly of section .sbss:

0000000000019190 <.sbss>:
	...

Disassembly of section .bss:

0000000000019258 <.bss>:
	...

Disassembly of section .comment:

0000000000000000 <.comment>:
   0:	3a434347          	fmsub.d	ft6,ft6,ft4,ft7,rmm
   4:	2820                	fld	fs0,80(s0)
   6:	29554e47          	fmsub.s	ft8,fa0,fs5,ft5,rmm
   a:	3820                	fld	fs0,112(s0)
   c:	322e                	fld	ft4,232(sp)
   e:	302e                	fld	ft0,232(sp)
	...
